Archive member included because of file (symbol)

..\..\Kernel-Tank-MASTER\Debug\libKernel-Tank-MASTER.a(kernel.o)
                              Main.o (tankIO_setLeds)
..\..\AntonAvrLib\Debug\libAntonAvrLib.a(motor_smooth.o)
                              ..\..\Kernel-Tank-MASTER\Debug\libKernel-Tank-MASTER.a(kernel.o) (motor_smooth_tick)
..\..\AntonAvrLib\Debug\libAntonAvrLib.a(motor.o)
                              ..\..\AntonAvrLib\Debug\libAntonAvrLib.a(motor_smooth.o) (setSpeed)
..\..\AntonAvrLib\Debug\libAntonAvrLib.a(port.o)
                              ..\..\Kernel-Tank-MASTER\Debug\libKernel-Tank-MASTER.a(kernel.o) (setPinOutput)
..\..\AntonAvrLib\Debug\libAntonAvrLib.a(timer.o)
                              ..\..\Kernel-Tank-MASTER\Debug\libKernel-Tank-MASTER.a(kernel.o) (setCompareMatchOutputMode)
..\..\AntonAvrLib\Debug\libAntonAvrLib.a(idle.o)
                              ..\..\Kernel-Tank-MASTER\Debug\libKernel-Tank-MASTER.a(kernel.o) (processor_loop_idle)
c:/program files (x86)/atmel/atmel studio 6.0/extensions/atmel/avrgcc/3.3.2.31/avrtoolchain/bin/../lib/gcc/avr/4.5.1/avr51\libgcc.a(_exit.o)
                              c:/program files (x86)/atmel/atmel studio 6.0/extensions/atmel/avrgcc/3.3.2.31/avrtoolchain/bin/../lib/gcc/avr/4.5.1/../../../../avr/lib/avr51/crtm1284p.o (exit)
c:/program files (x86)/atmel/atmel studio 6.0/extensions/atmel/avrgcc/3.3.2.31/avrtoolchain/bin/../lib/gcc/avr/4.5.1/avr51\libgcc.a(_copy_data.o)
                              ..\..\Kernel-Tank-MASTER\Debug\libKernel-Tank-MASTER.a(kernel.o) (__do_copy_data)
c:/program files (x86)/atmel/atmel studio 6.0/extensions/atmel/avrgcc/3.3.2.31/avrtoolchain/bin/../lib/gcc/avr/4.5.1/avr51\libgcc.a(_clear_bss.o)
                              ..\..\Kernel-Tank-MASTER\Debug\libKernel-Tank-MASTER.a(kernel.o) (__do_clear_bss)
c:/program files (x86)/atmel/atmel studio 6.0/extensions/atmel/avrgcc/3.3.2.31/avrtoolchain/bin/../lib/gcc/avr/4.5.1/../../../../avr/lib/avr51\libc.a(malloc.o)
                              ..\..\Kernel-Tank-MASTER\Debug\libKernel-Tank-MASTER.a(kernel.o) (malloc)
c:/program files (x86)/atmel/atmel studio 6.0/extensions/atmel/avrgcc/3.3.2.31/avrtoolchain/bin/../lib/gcc/avr/4.5.1/../../../../avr/lib/avr51\libc.a(memcpy.o)
                              ..\..\Kernel-Tank-MASTER\Debug\libKernel-Tank-MASTER.a(kernel.o) (memcpy)

Allocating common symbols
Common symbol       size              file

twi_address         0x1               ..\..\Kernel-Tank-MASTER\Debug\libKernel-Tank-MASTER.a(kernel.o)
PinA5_              0x3               ..\..\Kernel-Tank-MASTER\Debug\libKernel-Tank-MASTER.a(kernel.o)
PinD7_              0x3               ..\..\Kernel-Tank-MASTER\Debug\libKernel-Tank-MASTER.a(kernel.o)
PinC1_              0x3               ..\..\Kernel-Tank-MASTER\Debug\libKernel-Tank-MASTER.a(kernel.o)
PinC4_              0x3               ..\..\Kernel-Tank-MASTER\Debug\libKernel-Tank-MASTER.a(kernel.o)
RightMotorBase_     0xb               ..\..\Kernel-Tank-MASTER\Debug\libKernel-Tank-MASTER.a(kernel.o)
PinC7_              0x3               ..\..\Kernel-Tank-MASTER\Debug\libKernel-Tank-MASTER.a(kernel.o)
PinA6_              0x3               ..\..\Kernel-Tank-MASTER\Debug\libKernel-Tank-MASTER.a(kernel.o)
PinB2_              0x3               ..\..\Kernel-Tank-MASTER\Debug\libKernel-Tank-MASTER.a(kernel.o)
PinD0_              0x3               ..\..\Kernel-Tank-MASTER\Debug\libKernel-Tank-MASTER.a(kernel.o)
sendBufferData      0xff              ..\..\Kernel-Tank-MASTER\Debug\libKernel-Tank-MASTER.a(kernel.o)
PinA1_              0x3               ..\..\Kernel-Tank-MASTER\Debug\libKernel-Tank-MASTER.a(kernel.o)
Timer3A_            0x8               ..\..\Kernel-Tank-MASTER\Debug\libKernel-Tank-MASTER.a(kernel.o)
Timer1A_            0x8               ..\..\Kernel-Tank-MASTER\Debug\libKernel-Tank-MASTER.a(kernel.o)
Timer1_             0x7               ..\..\Kernel-Tank-MASTER\Debug\libKernel-Tank-MASTER.a(kernel.o)
PinC2_              0x3               ..\..\Kernel-Tank-MASTER\Debug\libKernel-Tank-MASTER.a(kernel.o)
PortD_              0x6               ..\..\Kernel-Tank-MASTER\Debug\libKernel-Tank-MASTER.a(kernel.o)
Timer2_             0x7               ..\..\Kernel-Tank-MASTER\Debug\libKernel-Tank-MASTER.a(kernel.o)
Timer3_             0x7               ..\..\Kernel-Tank-MASTER\Debug\libKernel-Tank-MASTER.a(kernel.o)
Timer0B_            0x8               ..\..\Kernel-Tank-MASTER\Debug\libKernel-Tank-MASTER.a(kernel.o)
__brkval            0x2               c:/program files (x86)/atmel/atmel studio 6.0/extensions/atmel/avrgcc/3.3.2.31/avrtoolchain/bin/../lib/gcc/avr/4.5.1/../../../../avr/lib/avr51\libc.a(malloc.o)
PinC3_              0x3               ..\..\Kernel-Tank-MASTER\Debug\libKernel-Tank-MASTER.a(kernel.o)
PinA4_              0x3               ..\..\Kernel-Tank-MASTER\Debug\libKernel-Tank-MASTER.a(kernel.o)
PinC5_              0x3               ..\..\Kernel-Tank-MASTER\Debug\libKernel-Tank-MASTER.a(kernel.o)
PortB_              0x6               ..\..\Kernel-Tank-MASTER\Debug\libKernel-Tank-MASTER.a(kernel.o)
PinC0_              0x3               ..\..\Kernel-Tank-MASTER\Debug\libKernel-Tank-MASTER.a(kernel.o)
alreadyHandled      0x2               ..\..\Kernel-Tank-MASTER\Debug\libKernel-Tank-MASTER.a(kernel.o)
twi_error           0x2               ..\..\Kernel-Tank-MASTER\Debug\libKernel-Tank-MASTER.a(kernel.o)
PinB1_              0x3               ..\..\Kernel-Tank-MASTER\Debug\libKernel-Tank-MASTER.a(kernel.o)
PinA7_              0x3               ..\..\Kernel-Tank-MASTER\Debug\libKernel-Tank-MASTER.a(kernel.o)
PinB7_              0x3               ..\..\Kernel-Tank-MASTER\Debug\libKernel-Tank-MASTER.a(kernel.o)
LeftMotor_          0x10              ..\..\Kernel-Tank-MASTER\Debug\libKernel-Tank-MASTER.a(kernel.o)
PortC_              0x6               ..\..\Kernel-Tank-MASTER\Debug\libKernel-Tank-MASTER.a(kernel.o)
Timer1B_            0x8               ..\..\Kernel-Tank-MASTER\Debug\libKernel-Tank-MASTER.a(kernel.o)
LeftMotorBase_      0xb               ..\..\Kernel-Tank-MASTER\Debug\libKernel-Tank-MASTER.a(kernel.o)
PinD5_              0x3               ..\..\Kernel-Tank-MASTER\Debug\libKernel-Tank-MASTER.a(kernel.o)
PinA0_              0x3               ..\..\Kernel-Tank-MASTER\Debug\libKernel-Tank-MASTER.a(kernel.o)
PinD2_              0x3               ..\..\Kernel-Tank-MASTER\Debug\libKernel-Tank-MASTER.a(kernel.o)
Timer2B_            0x8               ..\..\Kernel-Tank-MASTER\Debug\libKernel-Tank-MASTER.a(kernel.o)
PinC6_              0x3               ..\..\Kernel-Tank-MASTER\Debug\libKernel-Tank-MASTER.a(kernel.o)
Timer3B_            0x8               ..\..\Kernel-Tank-MASTER\Debug\libKernel-Tank-MASTER.a(kernel.o)
PinD4_              0x3               ..\..\Kernel-Tank-MASTER\Debug\libKernel-Tank-MASTER.a(kernel.o)
nextTwiOperation    0x2               ..\..\Kernel-Tank-MASTER\Debug\libKernel-Tank-MASTER.a(kernel.o)
PinB5_              0x3               ..\..\Kernel-Tank-MASTER\Debug\libKernel-Tank-MASTER.a(kernel.o)
twi_buffer          0x4               ..\..\Kernel-Tank-MASTER\Debug\libKernel-Tank-MASTER.a(kernel.o)
PinA3_              0x3               ..\..\Kernel-Tank-MASTER\Debug\libKernel-Tank-MASTER.a(kernel.o)
twi_running         0x2               ..\..\Kernel-Tank-MASTER\Debug\libKernel-Tank-MASTER.a(kernel.o)
PinD3_              0x3               ..\..\Kernel-Tank-MASTER\Debug\libKernel-Tank-MASTER.a(kernel.o)
Timer0_             0x7               ..\..\Kernel-Tank-MASTER\Debug\libKernel-Tank-MASTER.a(kernel.o)
PinB0_              0x3               ..\..\Kernel-Tank-MASTER\Debug\libKernel-Tank-MASTER.a(kernel.o)
PinB4_              0x3               ..\..\Kernel-Tank-MASTER\Debug\libKernel-Tank-MASTER.a(kernel.o)
PinD6_              0x3               ..\..\Kernel-Tank-MASTER\Debug\libKernel-Tank-MASTER.a(kernel.o)
PinA2_              0x3               ..\..\Kernel-Tank-MASTER\Debug\libKernel-Tank-MASTER.a(kernel.o)
PortA_              0x6               ..\..\Kernel-Tank-MASTER\Debug\libKernel-Tank-MASTER.a(kernel.o)
RightMotor_         0x10              ..\..\Kernel-Tank-MASTER\Debug\libKernel-Tank-MASTER.a(kernel.o)
PinB3_              0x3               ..\..\Kernel-Tank-MASTER\Debug\libKernel-Tank-MASTER.a(kernel.o)
__flp               0x2               c:/program files (x86)/atmel/atmel studio 6.0/extensions/atmel/avrgcc/3.3.2.31/avrtoolchain/bin/../lib/gcc/avr/4.5.1/../../../../avr/lib/avr51\libc.a(malloc.o)
furtherOperations   0x15              ..\..\Kernel-Tank-MASTER\Debug\libKernel-Tank-MASTER.a(kernel.o)
PinD1_              0x3               ..\..\Kernel-Tank-MASTER\Debug\libKernel-Tank-MASTER.a(kernel.o)
Timer2A_            0x8               ..\..\Kernel-Tank-MASTER\Debug\libKernel-Tank-MASTER.a(kernel.o)
PinB6_              0x3               ..\..\Kernel-Tank-MASTER\Debug\libKernel-Tank-MASTER.a(kernel.o)
Timer0A_            0x8               ..\..\Kernel-Tank-MASTER\Debug\libKernel-Tank-MASTER.a(kernel.o)

Memory Configuration

Name             Origin             Length             Attributes
text             0x00000000         0x00020000         xr
data             0x00800100         0x0000ff00         rw !x
eeprom           0x00810000         0x00010000         rw !x
fuse             0x00820000         0x00000400         rw !x
lock             0x00830000         0x00000400         rw !x
signature        0x00840000         0x00000400         rw !x
*default*        0x00000000         0xffffffff

Linker script and memory map

Address of section .data set to 0x800100
LOAD c:/program files (x86)/atmel/atmel studio 6.0/extensions/atmel/avrgcc/3.3.2.31/avrtoolchain/bin/../lib/gcc/avr/4.5.1/../../../../avr/lib/avr51/crtm1284p.o
LOAD Main.o
START GROUP
LOAD ..\..\AntonAvrLib\Debug\libAntonAvrLib.a
LOAD ..\..\Kernel-Tank-MASTER\Debug\libKernel-Tank-MASTER.a
LOAD c:/program files (x86)/atmel/atmel studio 6.0/extensions/atmel/avrgcc/3.3.2.31/avrtoolchain/bin/../lib/gcc/avr/4.5.1/../../../../avr/lib/avr51\libm.a
END GROUP
LOAD c:/program files (x86)/atmel/atmel studio 6.0/extensions/atmel/avrgcc/3.3.2.31/avrtoolchain/bin/../lib/gcc/avr/4.5.1/avr51\libgcc.a
LOAD c:/program files (x86)/atmel/atmel studio 6.0/extensions/atmel/avrgcc/3.3.2.31/avrtoolchain/bin/../lib/gcc/avr/4.5.1/../../../../avr/lib/avr51\libc.a
LOAD c:/program files (x86)/atmel/atmel studio 6.0/extensions/atmel/avrgcc/3.3.2.31/avrtoolchain/bin/../lib/gcc/avr/4.5.1/avr51\libgcc.a

.hash
 *(.hash)

.dynsym
 *(.dynsym)

.dynstr
 *(.dynstr)

.gnu.version
 *(.gnu.version)

.gnu.version_d
 *(.gnu.version_d)

.gnu.version_r
 *(.gnu.version_r)

.rel.init
 *(.rel.init)

.rela.init
 *(.rela.init)

.rel.text
 *(.rel.text)
 *(.rel.text.*)
 *(.rel.gnu.linkonce.t*)

.rela.text
 *(.rela.text)
 *(.rela.text.*)
 *(.rela.gnu.linkonce.t*)

.rel.fini
 *(.rel.fini)

.rela.fini
 *(.rela.fini)

.rel.rodata
 *(.rel.rodata)
 *(.rel.rodata.*)
 *(.rel.gnu.linkonce.r*)

.rela.rodata
 *(.rela.rodata)
 *(.rela.rodata.*)
 *(.rela.gnu.linkonce.r*)

.rel.data
 *(.rel.data)
 *(.rel.data.*)
 *(.rel.gnu.linkonce.d*)

.rela.data
 *(.rela.data)
 *(.rela.data.*)
 *(.rela.gnu.linkonce.d*)

.rel.ctors
 *(.rel.ctors)

.rela.ctors
 *(.rela.ctors)

.rel.dtors
 *(.rel.dtors)

.rela.dtors
 *(.rela.dtors)

.rel.got
 *(.rel.got)

.rela.got
 *(.rela.got)

.rel.bss
 *(.rel.bss)

.rela.bss
 *(.rela.bss)

.rel.plt
 *(.rel.plt)

.rela.plt
 *(.rela.plt)

.text           0x00000000     0x2358
 *(.vectors)
 .vectors       0x00000000       0x8c c:/program files (x86)/atmel/atmel studio 6.0/extensions/atmel/avrgcc/3.3.2.31/avrtoolchain/bin/../lib/gcc/avr/4.5.1/../../../../avr/lib/avr51/crtm1284p.o
                0x00000000                __vector_default
                0x00000000                __vectors
 *(.vectors)
 *(.progmem.gcc*)
 *(.progmem*)
                0x0000008c                . = ALIGN (0x2)
                0x0000008c                __trampolines_start = .
 *(.trampolines)
 .trampolines   0x0000008c        0x0 linker stubs
 *(.trampolines*)
                0x0000008c                __trampolines_end = .
 *(.jumptables)
 *(.jumptables*)
 *(.lowtext)
 *(.lowtext*)
                0x0000008c                __ctors_start = .
 *(.ctors)
                0x0000008c                __ctors_end = .
                0x0000008c                __dtors_start = .
 *(.dtors)
                0x0000008c                __dtors_end = .
 SORT(*)(.ctors)
 SORT(*)(.dtors)
 *(.init0)
 .init0         0x0000008c        0x0 c:/program files (x86)/atmel/atmel studio 6.0/extensions/atmel/avrgcc/3.3.2.31/avrtoolchain/bin/../lib/gcc/avr/4.5.1/../../../../avr/lib/avr51/crtm1284p.o
                0x0000008c                __init
 *(.init0)
 *(.init1)
 *(.init1)
 *(.init2)
 .init2         0x0000008c        0xc c:/program files (x86)/atmel/atmel studio 6.0/extensions/atmel/avrgcc/3.3.2.31/avrtoolchain/bin/../lib/gcc/avr/4.5.1/../../../../avr/lib/avr51/crtm1284p.o
 *(.init2)
 *(.init3)
 *(.init3)
 *(.init4)
 .init4         0x00000098       0x1a c:/program files (x86)/atmel/atmel studio 6.0/extensions/atmel/avrgcc/3.3.2.31/avrtoolchain/bin/../lib/gcc/avr/4.5.1/avr51\libgcc.a(_copy_data.o)
                0x00000098                __do_copy_data
 .init4         0x000000b2       0x10 c:/program files (x86)/atmel/atmel studio 6.0/extensions/atmel/avrgcc/3.3.2.31/avrtoolchain/bin/../lib/gcc/avr/4.5.1/avr51\libgcc.a(_clear_bss.o)
                0x000000b2                __do_clear_bss
 *(.init4)
 *(.init5)
 *(.init5)
 *(.init6)
 *(.init6)
 *(.init7)
 *(.init7)
 *(.init8)
 .init8         0x000000c2       0x20 ..\..\Kernel-Tank-MASTER\Debug\libKernel-Tank-MASTER.a(kernel.o)
                0x000000c2                init_reset_condition_kernel_init
                0x000000c6                init_ports_m1284P_kernel_init
                0x000000ca                init_timer_m1284P_kernel_init
                0x000000ce                init_timer_kernel_init
                0x000000d2                init_tank_motors_kernel_init
                0x000000d6                init_smooth_motors_kernel_init
                0x000000da                init_twi_kernel_init
                0x000000de                init_kernel_kernel_init
 *(.init8)
 *(.init9)
 .init9         0x000000e2        0x8 c:/program files (x86)/atmel/atmel studio 6.0/extensions/atmel/avrgcc/3.3.2.31/avrtoolchain/bin/../lib/gcc/avr/4.5.1/../../../../avr/lib/avr51/crtm1284p.o
 *(.init9)
 *(.text)
 .text          0x000000ea        0x4 c:/program files (x86)/atmel/atmel studio 6.0/extensions/atmel/avrgcc/3.3.2.31/avrtoolchain/bin/../lib/gcc/avr/4.5.1/../../../../avr/lib/avr51/crtm1284p.o
                0x000000ea                __vector_22
                0x000000ea                __vector_28
                0x000000ea                __vector_1
                0x000000ea                __vector_34
                0x000000ea                __vector_24
                0x000000ea                __vector_12
                0x000000ea                __bad_interrupt
                0x000000ea                __vector_6
                0x000000ea                __vector_31
                0x000000ea                __vector_3
                0x000000ea                __vector_23
                0x000000ea                __vector_30
                0x000000ea                __vector_25
                0x000000ea                __vector_11
                0x000000ea                __vector_13
                0x000000ea                __vector_17
                0x000000ea                __vector_19
                0x000000ea                __vector_7
                0x000000ea                __vector_27
                0x000000ea                __vector_5
                0x000000ea                __vector_4
                0x000000ea                __vector_9
                0x000000ea                __vector_2
                0x000000ea                __vector_21
                0x000000ea                __vector_15
                0x000000ea                __vector_29
                0x000000ea                __vector_8
                0x000000ea                __vector_14
                0x000000ea                __vector_10
                0x000000ea                __vector_16
                0x000000ea                __vector_18
                0x000000ea                __vector_20
 .text          0x000000ee        0x0 Main.o
 .text          0x000000ee     0x16ee ..\..\Kernel-Tank-MASTER\Debug\libKernel-Tank-MASTER.a(kernel.o)
                0x00000184                init_reset_condition
                0x0000019e                getResetStatus
                0x000001a4                init_ports_m1284P
                0x000003be                init_timer_m1284P
                0x0000055c                init_timer
                0x00000596                in_timer_tick
                0x00000598                __vector_32
                0x0000060e                mutex_create
                0x00000618                mutex_lock
                0x0000062a                mutex_trylock
                0x00000634                mutex_release
                0x00000638                initMotor
                0x00000692                initMotor2Pins
                0x000006ba                init_tank_motors
                0x0000076c                initSmoothMotor
                0x00000780                smooth_motor_tick
                0x000007aa                smooth_enable_tick
                0x00000812                motor_smooth_stop_tick
                0x0000081c                motor_smooth_start_tick
                0x00000826                __vector_33
                0x00000876                init_smooth_motors
                0x00000930                twi_handleMasterRequest
                0x0000093a                twi_handleMasterTransmission
                0x0000093c                twi_unexpectedCondition
                0x0000093e                init_twi
                0x00000956                next_twi_operation
                0x00000a4c                twi_start_master_operation
                0x00000a78                __vector_26
                0x00000bf0                twiMultipleOperations
                0x00000c56                twiSendReceive
                0x00000cc0                twiReceive
                0x00000d0c                twiSend
                0x00000d5c                WAIT_FOR_TWI
                0x00000d6e                turn_word
                0x00000d7a                twi_rpc_oneway
                0x00000da2                tankIO_blinkByte
                0x00000de2                tankIO_flashAllLeds
                0x00000e1c                tankIO_flashLeds
                0x00000e60                tankIO_flashLed
                0x00000ea0                tankIO_blinkAllLeds
                0x00000ed6                tankIO_blinkLeds
                0x00000f16                tankIO_blinkLed
                0x00000f50                tankIO_setLeds
                0x00000f8a                tankIO_disableLeds
                0x00000fba                tankIO_enableLeds
                0x00000fea                tankIO_setLed
                0x00001020                tankIO_disableLed
                0x00001056                tankIO_enableLed
                0x0000108c                tankIO_reset
                0x000010a2                twi_rpc_pseudo_oneway
                0x000010d4                bgx1_setIllumination
                0x00001104                bgx1_termScroll
                0x00001130                bgx1_termGoto_base
                0x00001160                bgx1_termClear
                0x00001176                bgx1_selectFont
                0x000011a2                bgx1_fillAll
                0x000011ce                bgx1_mode
                0x000011fa                bgx1_move_base
                0x0000122a                bgx1_setStatus
                0x00001256                bgx1_reset
                0x0000126c                twi_rpc
                0x000012a8                tankIO_pressedButtons
                0x000012ec                tankIO_buttonStatus
                0x00001330                tankIO_isInitialized
                0x00001374                tankIO_wait
                0x0000138c                bgx1_syncInterface
                0x000013d8                bgx1_getAnalog_base
                0x0000142a                bgx1_syncPort_base
                0x0000147c                bgx1_termPrint_base
                0x000014be                bgx1_lineTo_base
                0x00001514                bgx1_embeddedImage
                0x00001566                bgx1_drawBitmap_base
                0x000015ac                bgx1_box_base
                0x00001602                bgx1_vLine
                0x00001654                bgx1_hLine
                0x000016a6                bgx1_textWidth_base
                0x000016e8                bgx1_print_base
                0x0000172e                bgx1_getStatus
                0x00001772                bgx1_getVersion_base
                0x000017ba                before_timer
                0x000017bc                init_kernel
 .text          0x000017dc        0x0 ..\..\AntonAvrLib\Debug\libAntonAvrLib.a(motor_smooth.o)
 .text          0x000017dc        0x0 ..\..\AntonAvrLib\Debug\libAntonAvrLib.a(motor.o)
 .text          0x000017dc        0x0 ..\..\AntonAvrLib\Debug\libAntonAvrLib.a(port.o)
 .text          0x000017dc        0x0 ..\..\AntonAvrLib\Debug\libAntonAvrLib.a(timer.o)
 .text          0x000017dc        0x0 ..\..\AntonAvrLib\Debug\libAntonAvrLib.a(idle.o)
 .text          0x000017dc        0x0 c:/program files (x86)/atmel/atmel studio 6.0/extensions/atmel/avrgcc/3.3.2.31/avrtoolchain/bin/../lib/gcc/avr/4.5.1/avr51\libgcc.a(_exit.o)
 .text          0x000017dc        0x0 c:/program files (x86)/atmel/atmel studio 6.0/extensions/atmel/avrgcc/3.3.2.31/avrtoolchain/bin/../lib/gcc/avr/4.5.1/avr51\libgcc.a(_copy_data.o)
 .text          0x000017dc        0x0 c:/program files (x86)/atmel/atmel studio 6.0/extensions/atmel/avrgcc/3.3.2.31/avrtoolchain/bin/../lib/gcc/avr/4.5.1/avr51\libgcc.a(_clear_bss.o)
 .text          0x000017dc        0x0 c:/program files (x86)/atmel/atmel studio 6.0/extensions/atmel/avrgcc/3.3.2.31/avrtoolchain/bin/../lib/gcc/avr/4.5.1/../../../../avr/lib/avr51\libc.a(malloc.o)
 .text          0x000017dc        0x0 c:/program files (x86)/atmel/atmel studio 6.0/extensions/atmel/avrgcc/3.3.2.31/avrtoolchain/bin/../lib/gcc/avr/4.5.1/../../../../avr/lib/avr51\libc.a(memcpy.o)
                0x000017dc                . = ALIGN (0x2)
 *(.text.*)
 .text.testStatus
                0x000017dc       0x56 Main.o
                0x000017dc                testStatus
 .text.testPressed
                0x00001832       0x56 Main.o
                0x00001832                testPressed
 .text.test_communication_raw
                0x00001888       0x30 Main.o
                0x00001888                test_communication_raw
 .text.main     0x000018b8        0xa Main.o
                0x000018b8                main
 .text.regulateSpeed
                0x000018c2       0x4e ..\..\AntonAvrLib\Debug\libAntonAvrLib.a(motor_smooth.o)
                0x000018c2                regulateSpeed
 .text.regulateStopMotor
                0x00001910        0xe ..\..\AntonAvrLib\Debug\libAntonAvrLib.a(motor_smooth.o)
                0x00001910                regulateStopMotor
 .text.regulateSpeedForward
                0x0000191e        0xa ..\..\AntonAvrLib\Debug\libAntonAvrLib.a(motor_smooth.o)
                0x0000191e                regulateSpeedForward
 .text.regulateSpeedBackward
                0x00001928        0xa ..\..\AntonAvrLib\Debug\libAntonAvrLib.a(motor_smooth.o)
                0x00001928                regulateSpeedBackward
 .text.regulateDirSpeed
                0x00001932       0x3c ..\..\AntonAvrLib\Debug\libAntonAvrLib.a(motor_smooth.o)
                0x00001932                regulateDirSpeed
 .text.motor_smooth_needsTick
                0x0000196e       0x30 ..\..\AntonAvrLib\Debug\libAntonAvrLib.a(motor_smooth.o)
                0x0000196e                motor_smooth_needsTick
 .text.motor_smooth_tick
                0x0000199e       0xb0 ..\..\AntonAvrLib\Debug\libAntonAvrLib.a(motor_smooth.o)
                0x0000199e                motor_smooth_tick
 .text.stopMotor
                0x00001a4e       0x5c ..\..\AntonAvrLib\Debug\libAntonAvrLib.a(motor.o)
                0x00001a4e                stopMotor
 .text.getSpeed
                0x00001aaa        0xc ..\..\AntonAvrLib\Debug\libAntonAvrLib.a(motor.o)
                0x00001aaa                getSpeed
 .text.getDirection
                0x00001ab6       0x72 ..\..\AntonAvrLib\Debug\libAntonAvrLib.a(motor.o)
                0x00001ab6                getDirection
 .text.setSpeed
                0x00001b28       0xa8 ..\..\AntonAvrLib\Debug\libAntonAvrLib.a(motor.o)
                0x00001b28                setSpeed
 .text.setSpeedForward
                0x00001bd0        0xa ..\..\AntonAvrLib\Debug\libAntonAvrLib.a(motor.o)
                0x00001bd0                setSpeedForward
 .text.setSpeedBackward
                0x00001bda        0xa ..\..\AntonAvrLib\Debug\libAntonAvrLib.a(motor.o)
                0x00001bda                setSpeedBackward
 .text.getDirSpeed
                0x00001be4       0x42 ..\..\AntonAvrLib\Debug\libAntonAvrLib.a(motor.o)
                0x00001be4                getDirSpeed
 .text.motor_toUnsignedSpeed
                0x00001c26       0x16 ..\..\AntonAvrLib\Debug\libAntonAvrLib.a(motor.o)
                0x00001c26                motor_toUnsignedSpeed
 .text.setDirSpeed
                0x00001c3c       0x3c ..\..\AntonAvrLib\Debug\libAntonAvrLib.a(motor.o)
                0x00001c3c                setDirSpeed
 .text.setPortOutput
                0x00001c78       0x10 ..\..\AntonAvrLib\Debug\libAntonAvrLib.a(port.o)
                0x00001c78                setPortOutput
 .text.setPortInput
                0x00001c88        0xe ..\..\AntonAvrLib\Debug\libAntonAvrLib.a(port.o)
                0x00001c88                setPortInput
 .text.setPinOutput
                0x00001c96       0x1c ..\..\AntonAvrLib\Debug\libAntonAvrLib.a(port.o)
                0x00001c96                setPinOutput
 .text.setPinInput
                0x00001cb2       0x1e ..\..\AntonAvrLib\Debug\libAntonAvrLib.a(port.o)
                0x00001cb2                setPinInput
 .text.writePort
                0x00001cd0        0xc ..\..\AntonAvrLib\Debug\libAntonAvrLib.a(port.o)
                0x00001cd0                writePort
 .text.readPort
                0x00001cdc        0xe ..\..\AntonAvrLib\Debug\libAntonAvrLib.a(port.o)
                0x00001cdc                readPort
 .text.setPinOne
                0x00001cea       0x1c ..\..\AntonAvrLib\Debug\libAntonAvrLib.a(port.o)
                0x00001cea                setPinOne
 .text.setPinZero
                0x00001d06       0x1e ..\..\AntonAvrLib\Debug\libAntonAvrLib.a(port.o)
                0x00001d06                setPinZero
 .text.writePin
                0x00001d24       0x12 ..\..\AntonAvrLib\Debug\libAntonAvrLib.a(port.o)
                0x00001d24                writePin
 .text.readPin  0x00001d36       0x22 ..\..\AntonAvrLib\Debug\libAntonAvrLib.a(port.o)
                0x00001d36                readPin
 .text.setCompareMatchOutputMode
                0x00001d58       0x56 ..\..\AntonAvrLib\Debug\libAntonAvrLib.a(timer.o)
                0x00001d58                setCompareMatchOutputMode
 .text.setTimerClockSelect
                0x00001dae       0xc8 ..\..\AntonAvrLib\Debug\libAntonAvrLib.a(timer.o)
                0x00001dae                setTimerClockSelect
 .text.setWaveformGenerationMode
                0x00001e76      0x12e ..\..\AntonAvrLib\Debug\libAntonAvrLib.a(timer.o)
                0x00001e76                setWaveformGenerationMode
 .text.enableTimerInterrupt
                0x00001fa4       0x28 ..\..\AntonAvrLib\Debug\libAntonAvrLib.a(timer.o)
                0x00001fa4                enableTimerInterrupt
 .text.disableTimerInterrupt
                0x00001fcc       0x28 ..\..\AntonAvrLib\Debug\libAntonAvrLib.a(timer.o)
                0x00001fcc                disableTimerInterrupt
 .text.enableOutputCompare
                0x00001ff4       0x1e ..\..\AntonAvrLib\Debug\libAntonAvrLib.a(timer.o)
                0x00001ff4                enableOutputCompare
 .text.disableOutputCompare
                0x00002012        0xa ..\..\AntonAvrLib\Debug\libAntonAvrLib.a(timer.o)
                0x00002012                disableOutputCompare
 .text.setTimerCompareValue
                0x0000201c       0x4e ..\..\AntonAvrLib\Debug\libAntonAvrLib.a(timer.o)
                0x0000201c                setTimerCompareValue
 .text.getTimerCompareValue
                0x0000206a       0x54 ..\..\AntonAvrLib\Debug\libAntonAvrLib.a(timer.o)
                0x0000206a                getTimerCompareValue
 .text.processor_idle
                0x000020be       0x12 ..\..\AntonAvrLib\Debug\libAntonAvrLib.a(idle.o)
                0x000020be                processor_idle
 .text.processor_loop_idle
                0x000020d0        0x6 ..\..\AntonAvrLib\Debug\libAntonAvrLib.a(idle.o)
                0x000020d0                processor_loop_idle
 .text.libgcc   0x000020d6        0x0 c:/program files (x86)/atmel/atmel studio 6.0/extensions/atmel/avrgcc/3.3.2.31/avrtoolchain/bin/../lib/gcc/avr/4.5.1/avr51\libgcc.a(_exit.o)
 .text.libgcc   0x000020d6        0x0 c:/program files (x86)/atmel/atmel studio 6.0/extensions/atmel/avrgcc/3.3.2.31/avrtoolchain/bin/../lib/gcc/avr/4.5.1/avr51\libgcc.a(_copy_data.o)
 .text.libgcc   0x000020d6        0x0 c:/program files (x86)/atmel/atmel studio 6.0/extensions/atmel/avrgcc/3.3.2.31/avrtoolchain/bin/../lib/gcc/avr/4.5.1/avr51\libgcc.a(_clear_bss.o)
 .text.avr-libc
                0x000020d6      0x266 c:/program files (x86)/atmel/atmel studio 6.0/extensions/atmel/avrgcc/3.3.2.31/avrtoolchain/bin/../lib/gcc/avr/4.5.1/../../../../avr/lib/avr51\libc.a(malloc.o)
                0x000020d6                malloc
                0x0000220a                free
 .text.avr-libc
                0x0000233c       0x12 c:/program files (x86)/atmel/atmel studio 6.0/extensions/atmel/avrgcc/3.3.2.31/avrtoolchain/bin/../lib/gcc/avr/4.5.1/../../../../avr/lib/avr51\libc.a(memcpy.o)
                0x0000233c                memcpy
                0x0000234e                . = ALIGN (0x2)
 *(.fini9)
 .fini9         0x0000234e        0x0 c:/program files (x86)/atmel/atmel studio 6.0/extensions/atmel/avrgcc/3.3.2.31/avrtoolchain/bin/../lib/gcc/avr/4.5.1/avr51\libgcc.a(_exit.o)
                0x0000234e                _exit
                0x0000234e                exit
 *(.fini9)
 *(.fini8)
 *(.fini8)
 *(.fini7)
 *(.fini7)
 *(.fini6)
 *(.fini6)
 *(.fini5)
 *(.fini5)
 *(.fini4)
 *(.fini4)
 *(.fini3)
 *(.fini3)
 *(.fini2)
 *(.fini2)
 *(.fini1)
 .fini1         0x0000234e        0x6 ..\..\Kernel-Tank-MASTER\Debug\libKernel-Tank-MASTER.a(kernel.o)
                0x0000234e                MainProcessEnd
 *(.fini1)
 *(.fini0)
 .fini0         0x00002354        0x4 c:/program files (x86)/atmel/atmel studio 6.0/extensions/atmel/avrgcc/3.3.2.31/avrtoolchain/bin/../lib/gcc/avr/4.5.1/avr51\libgcc.a(_exit.o)
 *(.fini0)
                0x00002358                _etext = .

.data           0x00800100       0xb0 load address 0x00002358
                0x00800100                PROVIDE (__data_start, .)
 *(.data)
 .data          0x00800100        0x0 c:/program files (x86)/atmel/atmel studio 6.0/extensions/atmel/avrgcc/3.3.2.31/avrtoolchain/bin/../lib/gcc/avr/4.5.1/../../../../avr/lib/avr51/crtm1284p.o
 .data          0x00800100        0x0 Main.o
 .data          0x00800100       0xa2 ..\..\Kernel-Tank-MASTER\Debug\libKernel-Tank-MASTER.a(kernel.o)
                0x00800100                PortA
                0x00800102                PinA0
                0x00800104                PinA1
                0x00800106                PinA2
                0x00800108                PinA3
                0x0080010a                PinA4
                0x0080010c                PinA5
                0x0080010e                PinA6
                0x00800110                PinA7
                0x00800112                PortB
                0x00800114                PinB0
                0x00800116                PinB1
                0x00800118                PinB2
                0x0080011a                PinB3
                0x0080011c                PinB4
                0x0080011e                PinB5
                0x00800120                PinB6
                0x00800122                PinB7
                0x00800124                PortC
                0x00800126                PinC0
                0x00800128                PinC1
                0x0080012a                PinC2
                0x0080012c                PinC3
                0x0080012e                PinC4
                0x00800130                PinC5
                0x00800132                PinC6
                0x00800134                PinC7
                0x00800136                PortD
                0x00800138                PinD0
                0x0080013a                PinD1
                0x0080013c                PinD2
                0x0080013e                PinD3
                0x00800140                PinD4
                0x00800142                PinD5
                0x00800144                PinD6
                0x00800146                PinD7
                0x00800148                Timer0
                0x0080014a                Timer1
                0x0080014c                Timer2
                0x0080014e                Timer3
                0x00800150                Timer0A
                0x00800152                Timer0B
                0x00800154                Timer1A
                0x00800156                Timer1B
                0x00800158                Timer2A
                0x0080015a                Timer2B
                0x0080015c                Timer3A
                0x0080015e                Timer3B
                0x00800160                LeftMotorBase
                0x00800162                RightMotorBase
                0x00800164                LeftMotor
                0x00800166                RightMotor
                0x00800168                bgx1
                0x00800169                tank_IO
                0x0080016a                sendBuffer
 .data          0x008001a2        0x0 ..\..\AntonAvrLib\Debug\libAntonAvrLib.a(motor_smooth.o)
 .data          0x008001a2        0x0 ..\..\AntonAvrLib\Debug\libAntonAvrLib.a(motor.o)
 .data          0x008001a2        0x0 ..\..\AntonAvrLib\Debug\libAntonAvrLib.a(port.o)
 .data          0x008001a2        0x8 ..\..\AntonAvrLib\Debug\libAntonAvrLib.a(timer.o)
 .data          0x008001aa        0x0 ..\..\AntonAvrLib\Debug\libAntonAvrLib.a(idle.o)
 .data          0x008001aa        0x0 c:/program files (x86)/atmel/atmel studio 6.0/extensions/atmel/avrgcc/3.3.2.31/avrtoolchain/bin/../lib/gcc/avr/4.5.1/avr51\libgcc.a(_exit.o)
 .data          0x008001aa        0x0 c:/program files (x86)/atmel/atmel studio 6.0/extensions/atmel/avrgcc/3.3.2.31/avrtoolchain/bin/../lib/gcc/avr/4.5.1/avr51\libgcc.a(_copy_data.o)
 .data          0x008001aa        0x0 c:/program files (x86)/atmel/atmel studio 6.0/extensions/atmel/avrgcc/3.3.2.31/avrtoolchain/bin/../lib/gcc/avr/4.5.1/avr51\libgcc.a(_clear_bss.o)
 .data          0x008001aa        0x6 c:/program files (x86)/atmel/atmel studio 6.0/extensions/atmel/avrgcc/3.3.2.31/avrtoolchain/bin/../lib/gcc/avr/4.5.1/../../../../avr/lib/avr51\libc.a(malloc.o)
                0x008001aa                __malloc_margin
                0x008001ac                __malloc_heap_start
                0x008001ae                __malloc_heap_end
 .data          0x008001b0        0x0 c:/program files (x86)/atmel/atmel studio 6.0/extensions/atmel/avrgcc/3.3.2.31/avrtoolchain/bin/../lib/gcc/avr/4.5.1/../../../../avr/lib/avr51\libc.a(memcpy.o)
 *(.data*)
 *(.rodata)
 *(.rodata*)
 *(.gnu.linkonce.d*)
                0x008001b0                . = ALIGN (0x2)
                0x008001b0                _edata = .
                0x008001b0                PROVIDE (__data_end, .)

.bss            0x008001b0      0x239
                0x008001b0                PROVIDE (__bss_start, .)
 *(.bss)
 .bss           0x008001b0        0x0 c:/program files (x86)/atmel/atmel studio 6.0/extensions/atmel/avrgcc/3.3.2.31/avrtoolchain/bin/../lib/gcc/avr/4.5.1/../../../../avr/lib/avr51/crtm1284p.o
 .bss           0x008001b0        0x0 Main.o
 .bss           0x008001b0        0xa ..\..\Kernel-Tank-MASTER\Debug\libKernel-Tank-MASTER.a(kernel.o)
                0x008001b0                current_reset_status
                0x008001b1                milliseconds_running
                0x008001b5                motor_A_running
                0x008001b7                motor_B_running
                0x008001b9                TWIBroadcast
 .bss           0x008001ba        0x0 ..\..\AntonAvrLib\Debug\libAntonAvrLib.a(motor_smooth.o)
 .bss           0x008001ba        0x0 ..\..\AntonAvrLib\Debug\libAntonAvrLib.a(motor.o)
 .bss           0x008001ba        0x0 ..\..\AntonAvrLib\Debug\libAntonAvrLib.a(port.o)
 .bss           0x008001ba        0x0 ..\..\AntonAvrLib\Debug\libAntonAvrLib.a(timer.o)
 .bss           0x008001ba        0x0 ..\..\AntonAvrLib\Debug\libAntonAvrLib.a(idle.o)
 .bss           0x008001ba        0x0 c:/program files (x86)/atmel/atmel studio 6.0/extensions/atmel/avrgcc/3.3.2.31/avrtoolchain/bin/../lib/gcc/avr/4.5.1/avr51\libgcc.a(_exit.o)
 .bss           0x008001ba        0x0 c:/program files (x86)/atmel/atmel studio 6.0/extensions/atmel/avrgcc/3.3.2.31/avrtoolchain/bin/../lib/gcc/avr/4.5.1/avr51\libgcc.a(_copy_data.o)
 .bss           0x008001ba        0x0 c:/program files (x86)/atmel/atmel studio 6.0/extensions/atmel/avrgcc/3.3.2.31/avrtoolchain/bin/../lib/gcc/avr/4.5.1/avr51\libgcc.a(_clear_bss.o)
 .bss           0x008001ba        0x0 c:/program files (x86)/atmel/atmel studio 6.0/extensions/atmel/avrgcc/3.3.2.31/avrtoolchain/bin/../lib/gcc/avr/4.5.1/../../../../avr/lib/avr51\libc.a(malloc.o)
 .bss           0x008001ba        0x0 c:/program files (x86)/atmel/atmel studio 6.0/extensions/atmel/avrgcc/3.3.2.31/avrtoolchain/bin/../lib/gcc/avr/4.5.1/../../../../avr/lib/avr51\libc.a(memcpy.o)
 *(.bss*)
 *(COMMON)
 COMMON         0x008001ba      0x22b ..\..\Kernel-Tank-MASTER\Debug\libKernel-Tank-MASTER.a(kernel.o)
                0x008001ba                twi_address
                0x008001bb                PinA5_
                0x008001be                PinD7_
                0x008001c1                PinC1_
                0x008001c4                PinC4_
                0x008001c7                RightMotorBase_
                0x008001d2                PinC7_
                0x008001d5                PinA6_
                0x008001d8                PinB2_
                0x008001db                PinD0_
                0x008001de                sendBufferData
                0x008002dd                PinA1_
                0x008002e0                Timer3A_
                0x008002e8                Timer1A_
                0x008002f0                Timer1_
                0x008002f7                PinC2_
                0x008002fa                PortD_
                0x00800300                Timer2_
                0x00800307                Timer3_
                0x0080030e                Timer0B_
                0x00800316                PinC3_
                0x00800319                PinA4_
                0x0080031c                PinC5_
                0x0080031f                PortB_
                0x00800325                PinC0_
                0x00800328                alreadyHandled
                0x0080032a                twi_error
                0x0080032c                PinB1_
                0x0080032f                PinA7_
                0x00800332                PinB7_
                0x00800335                LeftMotor_
                0x00800345                PortC_
                0x0080034b                Timer1B_
                0x00800353                LeftMotorBase_
                0x0080035e                PinD5_
                0x00800361                PinA0_
                0x00800364                PinD2_
                0x00800367                Timer2B_
                0x0080036f                PinC6_
                0x00800372                Timer3B_
                0x0080037a                PinD4_
                0x0080037d                nextTwiOperation
                0x0080037f                PinB5_
                0x00800382                twi_buffer
                0x00800386                PinA3_
                0x00800389                twi_running
                0x0080038b                PinD3_
                0x0080038e                Timer0_
                0x00800395                PinB0_
                0x00800398                PinB4_
                0x0080039b                PinD6_
                0x0080039e                PinA2_
                0x008003a1                PortA_
                0x008003a7                RightMotor_
                0x008003b7                PinB3_
                0x008003ba                furtherOperations
                0x008003cf                PinD1_
                0x008003d2                Timer2A_
                0x008003da                PinB6_
                0x008003dd                Timer0A_
 COMMON         0x008003e5        0x4 c:/program files (x86)/atmel/atmel studio 6.0/extensions/atmel/avrgcc/3.3.2.31/avrtoolchain/bin/../lib/gcc/avr/4.5.1/../../../../avr/lib/avr51\libc.a(malloc.o)
                0x008003e5                __brkval
                0x008003e7                __flp
                0x008003e9                PROVIDE (__bss_end, .)
                0x00002358                __data_load_start = LOADADDR (.data)
                0x00002408                __data_load_end = (__data_load_start + SIZEOF (.data))

.noinit         0x008003e9        0x0
                0x008003e9                PROVIDE (__noinit_start, .)
 *(.noinit*)
                0x008003e9                PROVIDE (__noinit_end, .)
                0x008003e9                _end = .
                0x008003e9                PROVIDE (__heap_start, .)

.eeprom         0x00810000        0x0
 *(.eeprom*)
                0x00810000                __eeprom_end = .

.fuse
 *(.fuse)
 *(.lfuse)
 *(.hfuse)
 *(.efuse)

.lock
 *(.lock*)

.signature
 *(.signature*)

.stab           0x00000000      0x750
 *(.stab)
 .stab          0x00000000      0x6cc c:/program files (x86)/atmel/atmel studio 6.0/extensions/atmel/avrgcc/3.3.2.31/avrtoolchain/bin/../lib/gcc/avr/4.5.1/../../../../avr/lib/avr51/crtm1284p.o
 .stab          0x000006cc       0x84 c:/program files (x86)/atmel/atmel studio 6.0/extensions/atmel/avrgcc/3.3.2.31/avrtoolchain/bin/../lib/gcc/avr/4.5.1/../../../../avr/lib/avr51\libc.a(memcpy.o)
                                 0x90 (size before relaxing)

.stabstr        0x00000000      0x10b
 *(.stabstr)
 .stabstr       0x00000000      0x10b c:/program files (x86)/atmel/atmel studio 6.0/extensions/atmel/avrgcc/3.3.2.31/avrtoolchain/bin/../lib/gcc/avr/4.5.1/../../../../avr/lib/avr51/crtm1284p.o

.stab.excl
 *(.stab.excl)

.stab.exclstr
 *(.stab.exclstr)

.stab.index
 *(.stab.index)

.stab.indexstr
 *(.stab.indexstr)

.comment
 *(.comment)

.debug
 *(.debug)

.line
 *(.line)

.debug_srcinfo
 *(.debug_srcinfo)

.debug_sfnames
 *(.debug_sfnames)

.debug_aranges  0x00000000      0x268
 *(.debug_aranges)
 .debug_aranges
                0x00000000       0x38 Main.o
 .debug_aranges
                0x00000038       0x68 ..\..\Kernel-Tank-MASTER\Debug\libKernel-Tank-MASTER.a(kernel.o)
 .debug_aranges
                0x000000a0       0x50 ..\..\AntonAvrLib\Debug\libAntonAvrLib.a(motor_smooth.o)
 .debug_aranges
                0x000000f0       0x60 ..\..\AntonAvrLib\Debug\libAntonAvrLib.a(motor.o)
 .debug_aranges
                0x00000150       0x68 ..\..\AntonAvrLib\Debug\libAntonAvrLib.a(port.o)
 .debug_aranges
                0x000001b8       0x60 ..\..\AntonAvrLib\Debug\libAntonAvrLib.a(timer.o)
 .debug_aranges
                0x00000218       0x28 ..\..\AntonAvrLib\Debug\libAntonAvrLib.a(idle.o)
 .debug_aranges
                0x00000240       0x28 c:/program files (x86)/atmel/atmel studio 6.0/extensions/atmel/avrgcc/3.3.2.31/avrtoolchain/bin/../lib/gcc/avr/4.5.1/../../../../avr/lib/avr51\libc.a(malloc.o)

.debug_pubnames
                0x00000000     0x116d
 *(.debug_pubnames)
 .debug_pubnames
                0x00000000       0x55 Main.o
 .debug_pubnames
                0x00000055      0xd58 ..\..\Kernel-Tank-MASTER\Debug\libKernel-Tank-MASTER.a(kernel.o)
 .debug_pubnames
                0x00000dad       0xb3 ..\..\AntonAvrLib\Debug\libAntonAvrLib.a(motor_smooth.o)
 .debug_pubnames
                0x00000e60       0xae ..\..\AntonAvrLib\Debug\libAntonAvrLib.a(motor.o)
 .debug_pubnames
                0x00000f0e       0xa7 ..\..\AntonAvrLib\Debug\libAntonAvrLib.a(port.o)
 .debug_pubnames
                0x00000fb5       0xfc ..\..\AntonAvrLib\Debug\libAntonAvrLib.a(timer.o)
 .debug_pubnames
                0x000010b1       0x3d ..\..\AntonAvrLib\Debug\libAntonAvrLib.a(idle.o)
 .debug_pubnames
                0x000010ee       0x7f c:/program files (x86)/atmel/atmel studio 6.0/extensions/atmel/avrgcc/3.3.2.31/avrtoolchain/bin/../lib/gcc/avr/4.5.1/../../../../avr/lib/avr51\libc.a(malloc.o)

.debug_info     0x00000000     0x4291
 *(.debug_info)
 .debug_info    0x00000000      0x29e Main.o
 .debug_info    0x0000029e     0x2a70 ..\..\Kernel-Tank-MASTER\Debug\libKernel-Tank-MASTER.a(kernel.o)
 .debug_info    0x00002d0e      0x4dc ..\..\AntonAvrLib\Debug\libAntonAvrLib.a(motor_smooth.o)
 .debug_info    0x000031ea      0x570 ..\..\AntonAvrLib\Debug\libAntonAvrLib.a(motor.o)
 .debug_info    0x0000375a      0x2d6 ..\..\AntonAvrLib\Debug\libAntonAvrLib.a(port.o)
 .debug_info    0x00003a30      0x51d ..\..\AntonAvrLib\Debug\libAntonAvrLib.a(timer.o)
 .debug_info    0x00003f4d       0xae ..\..\AntonAvrLib\Debug\libAntonAvrLib.a(idle.o)
 .debug_info    0x00003ffb      0x296 c:/program files (x86)/atmel/atmel studio 6.0/extensions/atmel/avrgcc/3.3.2.31/avrtoolchain/bin/../lib/gcc/avr/4.5.1/../../../../avr/lib/avr51\libc.a(malloc.o)
 *(.gnu.linkonce.wi.*)

.debug_abbrev   0x00000000      0xaed
 *(.debug_abbrev)
 .debug_abbrev  0x00000000      0x16b Main.o
 .debug_abbrev  0x0000016b      0x3a6 ..\..\Kernel-Tank-MASTER\Debug\libKernel-Tank-MASTER.a(kernel.o)
 .debug_abbrev  0x00000511      0x107 ..\..\AntonAvrLib\Debug\libAntonAvrLib.a(motor_smooth.o)
 .debug_abbrev  0x00000618      0x15f ..\..\AntonAvrLib\Debug\libAntonAvrLib.a(motor.o)
 .debug_abbrev  0x00000777      0x100 ..\..\AntonAvrLib\Debug\libAntonAvrLib.a(port.o)
 .debug_abbrev  0x00000877      0x11d ..\..\AntonAvrLib\Debug\libAntonAvrLib.a(timer.o)
 .debug_abbrev  0x00000994       0x64 ..\..\AntonAvrLib\Debug\libAntonAvrLib.a(idle.o)
 .debug_abbrev  0x000009f8       0xf5 c:/program files (x86)/atmel/atmel studio 6.0/extensions/atmel/avrgcc/3.3.2.31/avrtoolchain/bin/../lib/gcc/avr/4.5.1/../../../../avr/lib/avr51\libc.a(malloc.o)

.debug_line     0x00000000     0x4030
 *(.debug_line)
 .debug_line    0x00000000      0x85c Main.o
 .debug_line    0x0000085c     0x1562 ..\..\Kernel-Tank-MASTER\Debug\libKernel-Tank-MASTER.a(kernel.o)
 .debug_line    0x00001dbe      0x676 ..\..\AntonAvrLib\Debug\libAntonAvrLib.a(motor_smooth.o)
 .debug_line    0x00002434      0x64b ..\..\AntonAvrLib\Debug\libAntonAvrLib.a(motor.o)
 .debug_line    0x00002a7f      0x518 ..\..\AntonAvrLib\Debug\libAntonAvrLib.a(port.o)
 .debug_line    0x00002f97      0x897 ..\..\AntonAvrLib\Debug\libAntonAvrLib.a(timer.o)
 .debug_line    0x0000382e      0x3fd ..\..\AntonAvrLib\Debug\libAntonAvrLib.a(idle.o)
 .debug_line    0x00003c2b      0x405 c:/program files (x86)/atmel/atmel studio 6.0/extensions/atmel/avrgcc/3.3.2.31/avrtoolchain/bin/../lib/gcc/avr/4.5.1/../../../../avr/lib/avr51\libc.a(malloc.o)

.debug_frame    0x00000000      0x930
 *(.debug_frame)
 .debug_frame   0x00000000       0x50 Main.o
 .debug_frame   0x00000050      0x610 ..\..\Kernel-Tank-MASTER\Debug\libKernel-Tank-MASTER.a(kernel.o)
 .debug_frame   0x00000660       0x80 ..\..\AntonAvrLib\Debug\libAntonAvrLib.a(motor_smooth.o)
 .debug_frame   0x000006e0       0xa0 ..\..\AntonAvrLib\Debug\libAntonAvrLib.a(motor.o)
 .debug_frame   0x00000780       0xb0 ..\..\AntonAvrLib\Debug\libAntonAvrLib.a(port.o)
 .debug_frame   0x00000830       0xa0 ..\..\AntonAvrLib\Debug\libAntonAvrLib.a(timer.o)
 .debug_frame   0x000008d0       0x30 ..\..\AntonAvrLib\Debug\libAntonAvrLib.a(idle.o)
 .debug_frame   0x00000900       0x30 c:/program files (x86)/atmel/atmel studio 6.0/extensions/atmel/avrgcc/3.3.2.31/avrtoolchain/bin/../lib/gcc/avr/4.5.1/../../../../avr/lib/avr51\libc.a(malloc.o)

.debug_str      0x00000000     0x1947
 *(.debug_str)
 .debug_str     0x00000000      0x1ad Main.o
                                0x1eb (size before relaxing)
 .debug_str     0x000001ad     0x132b ..\..\Kernel-Tank-MASTER\Debug\libKernel-Tank-MASTER.a(kernel.o)
                               0x1508 (size before relaxing)
 .debug_str     0x000014d8       0xef ..\..\AntonAvrLib\Debug\libAntonAvrLib.a(motor_smooth.o)
                                0x31a (size before relaxing)
 .debug_str     0x000015c7       0xa0 ..\..\AntonAvrLib\Debug\libAntonAvrLib.a(motor.o)
                                0x2b5 (size before relaxing)
 .debug_str     0x00001667       0x8c ..\..\AntonAvrLib\Debug\libAntonAvrLib.a(port.o)
                                0x15a (size before relaxing)
 .debug_str     0x000016f3      0x127 ..\..\AntonAvrLib\Debug\libAntonAvrLib.a(timer.o)
                                0x423 (size before relaxing)
 .debug_str     0x0000181a       0x32 ..\..\AntonAvrLib\Debug\libAntonAvrLib.a(idle.o)
                                 0xe6 (size before relaxing)
 .debug_str     0x0000184c       0xfb c:/program files (x86)/atmel/atmel studio 6.0/extensions/atmel/avrgcc/3.3.2.31/avrtoolchain/bin/../lib/gcc/avr/4.5.1/../../../../avr/lib/avr51\libc.a(malloc.o)
                                0x17c (size before relaxing)

.debug_loc      0x00000000     0x19fd
 *(.debug_loc)
 .debug_loc     0x00000000       0x66 Main.o
 .debug_loc     0x00000066      0x717 ..\..\Kernel-Tank-MASTER\Debug\libKernel-Tank-MASTER.a(kernel.o)
 .debug_loc     0x0000077d      0x238 ..\..\AntonAvrLib\Debug\libAntonAvrLib.a(motor_smooth.o)
 .debug_loc     0x000009b5      0x403 ..\..\AntonAvrLib\Debug\libAntonAvrLib.a(motor.o)
 .debug_loc     0x00000db8      0x168 ..\..\AntonAvrLib\Debug\libAntonAvrLib.a(port.o)
 .debug_loc     0x00000f20      0x6b4 ..\..\AntonAvrLib\Debug\libAntonAvrLib.a(timer.o)
 .debug_loc     0x000015d4      0x429 c:/program files (x86)/atmel/atmel studio 6.0/extensions/atmel/avrgcc/3.3.2.31/avrtoolchain/bin/../lib/gcc/avr/4.5.1/../../../../avr/lib/avr51\libc.a(malloc.o)

.debug_macinfo  0x00000000    0x3ee15
 *(.debug_macinfo)
 .debug_macinfo
                0x00000000     0xa9f5 Main.o
 .debug_macinfo
                0x0000a9f5     0xc98f ..\..\Kernel-Tank-MASTER\Debug\libKernel-Tank-MASTER.a(kernel.o)
 .debug_macinfo
                0x00017384     0x7f91 ..\..\AntonAvrLib\Debug\libAntonAvrLib.a(motor_smooth.o)
 .debug_macinfo
                0x0001f315     0x7f58 ..\..\AntonAvrLib\Debug\libAntonAvrLib.a(motor.o)
 .debug_macinfo
                0x0002726d     0x7d24 ..\..\AntonAvrLib\Debug\libAntonAvrLib.a(port.o)
 .debug_macinfo
                0x0002ef91     0x7e2a ..\..\AntonAvrLib\Debug\libAntonAvrLib.a(timer.o)
 .debug_macinfo
                0x00036dbb     0x805a ..\..\AntonAvrLib\Debug\libAntonAvrLib.a(idle.o)
OUTPUT(Main-Tank-MASTER.elf elf32-avr)
LOAD linker stubs

.debug_pubtypes
                0x00000000      0x59d
 .debug_pubtypes
                0x00000000       0x5f Main.o
 .debug_pubtypes
                0x0000005f      0x27d ..\..\Kernel-Tank-MASTER\Debug\libKernel-Tank-MASTER.a(kernel.o)
 .debug_pubtypes
                0x000002dc       0xc1 ..\..\AntonAvrLib\Debug\libAntonAvrLib.a(motor_smooth.o)
 .debug_pubtypes
                0x0000039d       0xb4 ..\..\AntonAvrLib\Debug\libAntonAvrLib.a(motor.o)
 .debug_pubtypes
                0x00000451       0x3a ..\..\AntonAvrLib\Debug\libAntonAvrLib.a(port.o)
 .debug_pubtypes
                0x0000048b       0xbb ..\..\AntonAvrLib\Debug\libAntonAvrLib.a(timer.o)
 .debug_pubtypes
                0x00000546       0x1e ..\..\AntonAvrLib\Debug\libAntonAvrLib.a(idle.o)
 .debug_pubtypes
                0x00000564       0x39 c:/program files (x86)/atmel/atmel studio 6.0/extensions/atmel/avrgcc/3.3.2.31/avrtoolchain/bin/../lib/gcc/avr/4.5.1/../../../../avr/lib/avr51\libc.a(malloc.o)

.debug_ranges   0x00000000      0x200
 .debug_ranges  0x00000000       0x28 Main.o
 .debug_ranges  0x00000028       0x58 ..\..\Kernel-Tank-MASTER\Debug\libKernel-Tank-MASTER.a(kernel.o)
 .debug_ranges  0x00000080       0x40 ..\..\AntonAvrLib\Debug\libAntonAvrLib.a(motor_smooth.o)
 .debug_ranges  0x000000c0       0x68 ..\..\AntonAvrLib\Debug\libAntonAvrLib.a(motor.o)
 .debug_ranges  0x00000128       0x58 ..\..\AntonAvrLib\Debug\libAntonAvrLib.a(port.o)
 .debug_ranges  0x00000180       0x50 ..\..\AntonAvrLib\Debug\libAntonAvrLib.a(timer.o)
 .debug_ranges  0x000001d0       0x18 ..\..\AntonAvrLib\Debug\libAntonAvrLib.a(idle.o)
 .debug_ranges  0x000001e8       0x18 c:/program files (x86)/atmel/atmel studio 6.0/extensions/atmel/avrgcc/3.3.2.31/avrtoolchain/bin/../lib/gcc/avr/4.5.1/../../../../avr/lib/avr51\libc.a(malloc.o)
