Archive member included because of file (symbol)

..\..\Kernel-Tank-IO\Release\libKernel-Tank-IO.a(kernel.o)
                              Main.o (buttonStatusMask)
..\..\AntonAvrLib\Release\libAntonAvrLib.a(button.o)
                              Main.o (buttonStatus)
..\..\AntonAvrLib\Release\libAntonAvrLib.a(external_interrupts.o)
                              ..\..\Kernel-Tank-IO\Release\libKernel-Tank-IO.a(kernel.o) (enablePinChangeInterrupt)
..\..\AntonAvrLib\Release\libAntonAvrLib.a(led.o)
                              Main.o (setLeds)
..\..\AntonAvrLib\Release\libAntonAvrLib.a(port.o)
                              ..\..\Kernel-Tank-IO\Release\libKernel-Tank-IO.a(kernel.o) (setPinOutput)
..\..\AntonAvrLib\Release\libAntonAvrLib.a(timer.o)
                              ..\..\Kernel-Tank-IO\Release\libKernel-Tank-IO.a(kernel.o) (setTimerClockSelect)
..\..\AntonAvrLib\Release\libAntonAvrLib.a(idle.o)
                              ..\..\Kernel-Tank-IO\Release\libKernel-Tank-IO.a(kernel.o) (processor_loop_idle)
c:/program files (x86)/atmel/atmel studio 6.0/extensions/atmel/avrgcc/3.3.2.31/avrtoolchain/bin/../lib/gcc/avr/4.5.1/avr51\libgcc.a(_divmodhi4.o)
                              Main.o (__divmodhi4)
c:/program files (x86)/atmel/atmel studio 6.0/extensions/atmel/avrgcc/3.3.2.31/avrtoolchain/bin/../lib/gcc/avr/4.5.1/avr51\libgcc.a(_exit.o)
                              c:/program files (x86)/atmel/atmel studio 6.0/extensions/atmel/avrgcc/3.3.2.31/avrtoolchain/bin/../lib/gcc/avr/4.5.1/../../../../avr/lib/avr51/crtm1284p.o (exit)
c:/program files (x86)/atmel/atmel studio 6.0/extensions/atmel/avrgcc/3.3.2.31/avrtoolchain/bin/../lib/gcc/avr/4.5.1/avr51\libgcc.a(_copy_data.o)
                              main/LedOperations.o (__do_copy_data)
c:/program files (x86)/atmel/atmel studio 6.0/extensions/atmel/avrgcc/3.3.2.31/avrtoolchain/bin/../lib/gcc/avr/4.5.1/avr51\libgcc.a(_clear_bss.o)
                              main/LedOperations.o (__do_clear_bss)
c:/program files (x86)/atmel/atmel studio 6.0/extensions/atmel/avrgcc/3.3.2.31/avrtoolchain/bin/../lib/gcc/avr/4.5.1/avr51\libgcc.a(_udivmodhi4.o)
                              c:/program files (x86)/atmel/atmel studio 6.0/extensions/atmel/avrgcc/3.3.2.31/avrtoolchain/bin/../lib/gcc/avr/4.5.1/avr51\libgcc.a(_divmodhi4.o) (__udivmodhi4)
c:/program files (x86)/atmel/atmel studio 6.0/extensions/atmel/avrgcc/3.3.2.31/avrtoolchain/bin/../lib/gcc/avr/4.5.1/../../../../avr/lib/avr51\libc.a(malloc.o)
                              ..\..\Kernel-Tank-IO\Release\libKernel-Tank-IO.a(kernel.o) (malloc)

Allocating common symbols
Common symbol       size              file

ButtonSwitch_       0x4               ..\..\Kernel-Tank-IO\Release\libKernel-Tank-IO.a(kernel.o)
PinA5_              0x3               ..\..\Kernel-Tank-IO\Release\libKernel-Tank-IO.a(kernel.o)
PinD7_              0x3               ..\..\Kernel-Tank-IO\Release\libKernel-Tank-IO.a(kernel.o)
PinC1_              0x3               ..\..\Kernel-Tank-IO\Release\libKernel-Tank-IO.a(kernel.o)
PinC4_              0x3               ..\..\Kernel-Tank-IO\Release\libKernel-Tank-IO.a(kernel.o)
Button3_            0x4               ..\..\Kernel-Tank-IO\Release\libKernel-Tank-IO.a(kernel.o)
leds_right          0x2               main/LedOperations.o
Green1_             0x2               ..\..\Kernel-Tank-IO\Release\libKernel-Tank-IO.a(kernel.o)
PinC7_              0x3               ..\..\Kernel-Tank-IO\Release\libKernel-Tank-IO.a(kernel.o)
YellowLeds_         0x3               ..\..\Kernel-Tank-IO\Release\libKernel-Tank-IO.a(kernel.o)
PinA6_              0x3               ..\..\Kernel-Tank-IO\Release\libKernel-Tank-IO.a(kernel.o)
White4_             0x2               ..\..\Kernel-Tank-IO\Release\libKernel-Tank-IO.a(kernel.o)
WhiteLeds_          0x3               ..\..\Kernel-Tank-IO\Release\libKernel-Tank-IO.a(kernel.o)
PinB2_              0x3               ..\..\Kernel-Tank-IO\Release\libKernel-Tank-IO.a(kernel.o)
PinD0_              0x3               ..\..\Kernel-Tank-IO\Release\libKernel-Tank-IO.a(kernel.o)
PinA1_              0x3               ..\..\Kernel-Tank-IO\Release\libKernel-Tank-IO.a(kernel.o)
Timer3A_            0x8               ..\..\Kernel-Tank-IO\Release\libKernel-Tank-IO.a(kernel.o)
Timer1A_            0x8               ..\..\Kernel-Tank-IO\Release\libKernel-Tank-IO.a(kernel.o)
Red1_               0x2               ..\..\Kernel-Tank-IO\Release\libKernel-Tank-IO.a(kernel.o)
Timer1_             0x7               ..\..\Kernel-Tank-IO\Release\libKernel-Tank-IO.a(kernel.o)
PinC2_              0x3               ..\..\Kernel-Tank-IO\Release\libKernel-Tank-IO.a(kernel.o)
leds_middle         0x2               main/LedOperations.o
PortD_              0x6               ..\..\Kernel-Tank-IO\Release\libKernel-Tank-IO.a(kernel.o)
Timer2_             0x7               ..\..\Kernel-Tank-IO\Release\libKernel-Tank-IO.a(kernel.o)
Timer3_             0x7               ..\..\Kernel-Tank-IO\Release\libKernel-Tank-IO.a(kernel.o)
Timer0B_            0x8               ..\..\Kernel-Tank-IO\Release\libKernel-Tank-IO.a(kernel.o)
__brkval            0x2               c:/program files (x86)/atmel/atmel studio 6.0/extensions/atmel/avrgcc/3.3.2.31/avrtoolchain/bin/../lib/gcc/avr/4.5.1/../../../../avr/lib/avr51\libc.a(malloc.o)
PinC3_              0x3               ..\..\Kernel-Tank-IO\Release\libKernel-Tank-IO.a(kernel.o)
PinA4_              0x3               ..\..\Kernel-Tank-IO\Release\libKernel-Tank-IO.a(kernel.o)
PinC5_              0x3               ..\..\Kernel-Tank-IO\Release\libKernel-Tank-IO.a(kernel.o)
PortB_              0x6               ..\..\Kernel-Tank-IO\Release\libKernel-Tank-IO.a(kernel.o)
PinC0_              0x3               ..\..\Kernel-Tank-IO\Release\libKernel-Tank-IO.a(kernel.o)
Green2_             0x2               ..\..\Kernel-Tank-IO\Release\libKernel-Tank-IO.a(kernel.o)
PinB1_              0x3               ..\..\Kernel-Tank-IO\Release\libKernel-Tank-IO.a(kernel.o)
PinA7_              0x3               ..\..\Kernel-Tank-IO\Release\libKernel-Tank-IO.a(kernel.o)
Red3_               0x2               ..\..\Kernel-Tank-IO\Release\libKernel-Tank-IO.a(kernel.o)
PinB7_              0x3               ..\..\Kernel-Tank-IO\Release\libKernel-Tank-IO.a(kernel.o)
PortC_              0x6               ..\..\Kernel-Tank-IO\Release\libKernel-Tank-IO.a(kernel.o)
Timer1B_            0x8               ..\..\Kernel-Tank-IO\Release\libKernel-Tank-IO.a(kernel.o)
buttonMutex         0x2               ..\..\Kernel-Tank-IO\Release\libKernel-Tank-IO.a(kernel.o)
PinD5_              0x3               ..\..\Kernel-Tank-IO\Release\libKernel-Tank-IO.a(kernel.o)
White5_             0x2               ..\..\Kernel-Tank-IO\Release\libKernel-Tank-IO.a(kernel.o)
PinA0_              0x3               ..\..\Kernel-Tank-IO\Release\libKernel-Tank-IO.a(kernel.o)
PinD2_              0x3               ..\..\Kernel-Tank-IO\Release\libKernel-Tank-IO.a(kernel.o)
Timer2B_            0x8               ..\..\Kernel-Tank-IO\Release\libKernel-Tank-IO.a(kernel.o)
PinC6_              0x3               ..\..\Kernel-Tank-IO\Release\libKernel-Tank-IO.a(kernel.o)
Timer3B_            0x8               ..\..\Kernel-Tank-IO\Release\libKernel-Tank-IO.a(kernel.o)
Red5_               0x2               ..\..\Kernel-Tank-IO\Release\libKernel-Tank-IO.a(kernel.o)
White1_             0x2               ..\..\Kernel-Tank-IO\Release\libKernel-Tank-IO.a(kernel.o)
PinD4_              0x3               ..\..\Kernel-Tank-IO\Release\libKernel-Tank-IO.a(kernel.o)
Yellow2_            0x2               ..\..\Kernel-Tank-IO\Release\libKernel-Tank-IO.a(kernel.o)
leds_left           0x2               main/LedOperations.o
MiddleLeds_         0x3               ..\..\Kernel-Tank-IO\Release\libKernel-Tank-IO.a(kernel.o)
PinB5_              0x3               ..\..\Kernel-Tank-IO\Release\libKernel-Tank-IO.a(kernel.o)
PinA3_              0x3               ..\..\Kernel-Tank-IO\Release\libKernel-Tank-IO.a(kernel.o)
Button4_            0x4               ..\..\Kernel-Tank-IO\Release\libKernel-Tank-IO.a(kernel.o)
Button2_            0x4               ..\..\Kernel-Tank-IO\Release\libKernel-Tank-IO.a(kernel.o)
PinD3_              0x3               ..\..\Kernel-Tank-IO\Release\libKernel-Tank-IO.a(kernel.o)
AllLeds_            0x3               ..\..\Kernel-Tank-IO\Release\libKernel-Tank-IO.a(kernel.o)
Timer0_             0x7               ..\..\Kernel-Tank-IO\Release\libKernel-Tank-IO.a(kernel.o)
PinB0_              0x3               ..\..\Kernel-Tank-IO\Release\libKernel-Tank-IO.a(kernel.o)
PinB4_              0x3               ..\..\Kernel-Tank-IO\Release\libKernel-Tank-IO.a(kernel.o)
Red4_               0x2               ..\..\Kernel-Tank-IO\Release\libKernel-Tank-IO.a(kernel.o)
PinD6_              0x3               ..\..\Kernel-Tank-IO\Release\libKernel-Tank-IO.a(kernel.o)
White2_             0x2               ..\..\Kernel-Tank-IO\Release\libKernel-Tank-IO.a(kernel.o)
GreenLeds_          0x3               ..\..\Kernel-Tank-IO\Release\libKernel-Tank-IO.a(kernel.o)
Yellow1_            0x2               ..\..\Kernel-Tank-IO\Release\libKernel-Tank-IO.a(kernel.o)
PinA2_              0x3               ..\..\Kernel-Tank-IO\Release\libKernel-Tank-IO.a(kernel.o)
PortA_              0x6               ..\..\Kernel-Tank-IO\Release\libKernel-Tank-IO.a(kernel.o)
PinB3_              0x3               ..\..\Kernel-Tank-IO\Release\libKernel-Tank-IO.a(kernel.o)
__flp               0x2               c:/program files (x86)/atmel/atmel studio 6.0/extensions/atmel/avrgcc/3.3.2.31/avrtoolchain/bin/../lib/gcc/avr/4.5.1/../../../../avr/lib/avr51\libc.a(malloc.o)
Red2_               0x2               ..\..\Kernel-Tank-IO\Release\libKernel-Tank-IO.a(kernel.o)
Green3_             0x2               ..\..\Kernel-Tank-IO\Release\libKernel-Tank-IO.a(kernel.o)
PinD1_              0x3               ..\..\Kernel-Tank-IO\Release\libKernel-Tank-IO.a(kernel.o)
Timer2A_            0x8               ..\..\Kernel-Tank-IO\Release\libKernel-Tank-IO.a(kernel.o)
RedLeds_            0x3               ..\..\Kernel-Tank-IO\Release\libKernel-Tank-IO.a(kernel.o)
Button1_            0x4               ..\..\Kernel-Tank-IO\Release\libKernel-Tank-IO.a(kernel.o)
PinB6_              0x3               ..\..\Kernel-Tank-IO\Release\libKernel-Tank-IO.a(kernel.o)
White3_             0x2               ..\..\Kernel-Tank-IO\Release\libKernel-Tank-IO.a(kernel.o)
Timer0A_            0x8               ..\..\Kernel-Tank-IO\Release\libKernel-Tank-IO.a(kernel.o)

Memory Configuration

Name             Origin             Length             Attributes
text             0x00000000         0x00020000         xr
data             0x00800100         0x0000ff00         rw !x
eeprom           0x00810000         0x00010000         rw !x
fuse             0x00820000         0x00000400         rw !x
lock             0x00830000         0x00000400         rw !x
signature        0x00840000         0x00000400         rw !x
*default*        0x00000000         0xffffffff

Linker script and memory map

Address of section .data set to 0x800100
LOAD c:/program files (x86)/atmel/atmel studio 6.0/extensions/atmel/avrgcc/3.3.2.31/avrtoolchain/bin/../lib/gcc/avr/4.5.1/../../../../avr/lib/avr51/crtm1284p.o
LOAD Main.o
LOAD main/LedOperations.o
START GROUP
LOAD ..\..\Kernel-Tank-IO\Release\libKernel-Tank-IO.a
LOAD c:/program files (x86)/atmel/atmel studio 6.0/extensions/atmel/avrgcc/3.3.2.31/avrtoolchain/bin/../lib/gcc/avr/4.5.1/../../../../avr/lib/avr51\libm.a
LOAD ..\..\AntonAvrLib\Release\libAntonAvrLib.a
END GROUP
LOAD c:/program files (x86)/atmel/atmel studio 6.0/extensions/atmel/avrgcc/3.3.2.31/avrtoolchain/bin/../lib/gcc/avr/4.5.1/avr51\libgcc.a
LOAD c:/program files (x86)/atmel/atmel studio 6.0/extensions/atmel/avrgcc/3.3.2.31/avrtoolchain/bin/../lib/gcc/avr/4.5.1/../../../../avr/lib/avr51\libc.a
LOAD c:/program files (x86)/atmel/atmel studio 6.0/extensions/atmel/avrgcc/3.3.2.31/avrtoolchain/bin/../lib/gcc/avr/4.5.1/avr51\libgcc.a

.hash
 *(.hash)

.dynsym
 *(.dynsym)

.dynstr
 *(.dynstr)

.gnu.version
 *(.gnu.version)

.gnu.version_d
 *(.gnu.version_d)

.gnu.version_r
 *(.gnu.version_r)

.rel.init
 *(.rel.init)

.rela.init
 *(.rela.init)

.rel.text
 *(.rel.text)
 *(.rel.text.*)
 *(.rel.gnu.linkonce.t*)

.rela.text
 *(.rela.text)
 *(.rela.text.*)
 *(.rela.gnu.linkonce.t*)

.rel.fini
 *(.rel.fini)

.rela.fini
 *(.rela.fini)

.rel.rodata
 *(.rel.rodata)
 *(.rel.rodata.*)
 *(.rel.gnu.linkonce.r*)

.rela.rodata
 *(.rela.rodata)
 *(.rela.rodata.*)
 *(.rela.gnu.linkonce.r*)

.rel.data
 *(.rel.data)
 *(.rel.data.*)
 *(.rel.gnu.linkonce.d*)

.rela.data
 *(.rela.data)
 *(.rela.data.*)
 *(.rela.gnu.linkonce.d*)

.rel.ctors
 *(.rel.ctors)

.rela.ctors
 *(.rela.ctors)

.rel.dtors
 *(.rel.dtors)

.rela.dtors
 *(.rela.dtors)

.rel.got
 *(.rel.got)

.rela.got
 *(.rela.got)

.rel.bss
 *(.rel.bss)

.rela.bss
 *(.rela.bss)

.rel.plt
 *(.rel.plt)

.rela.plt
 *(.rela.plt)

.text           0x00000000     0x20f4
 *(.vectors)
 .vectors       0x00000000       0x8c c:/program files (x86)/atmel/atmel studio 6.0/extensions/atmel/avrgcc/3.3.2.31/avrtoolchain/bin/../lib/gcc/avr/4.5.1/../../../../avr/lib/avr51/crtm1284p.o
                0x00000000                __vector_default
                0x00000000                __vectors
 *(.vectors)
 *(.progmem.gcc*)
 *(.progmem*)
                0x0000008c                . = ALIGN (0x2)
                0x0000008c                __trampolines_start = .
 *(.trampolines)
 .trampolines   0x0000008c        0x0 linker stubs
 *(.trampolines*)
                0x0000008c                __trampolines_end = .
 *(.jumptables)
 *(.jumptables*)
 *(.lowtext)
 *(.lowtext*)
                0x0000008c                __ctors_start = .
 *(.ctors)
                0x0000008c                __ctors_end = .
                0x0000008c                __dtors_start = .
 *(.dtors)
                0x0000008c                __dtors_end = .
 SORT(*)(.ctors)
 SORT(*)(.dtors)
 *(.init0)
 .init0         0x0000008c        0x0 c:/program files (x86)/atmel/atmel studio 6.0/extensions/atmel/avrgcc/3.3.2.31/avrtoolchain/bin/../lib/gcc/avr/4.5.1/../../../../avr/lib/avr51/crtm1284p.o
                0x0000008c                __init
 *(.init0)
 *(.init1)
 *(.init1)
 *(.init2)
 .init2         0x0000008c        0xc c:/program files (x86)/atmel/atmel studio 6.0/extensions/atmel/avrgcc/3.3.2.31/avrtoolchain/bin/../lib/gcc/avr/4.5.1/../../../../avr/lib/avr51/crtm1284p.o
 *(.init2)
 *(.init3)
 *(.init3)
 *(.init4)
 .init4         0x00000098       0x1a c:/program files (x86)/atmel/atmel studio 6.0/extensions/atmel/avrgcc/3.3.2.31/avrtoolchain/bin/../lib/gcc/avr/4.5.1/avr51\libgcc.a(_copy_data.o)
                0x00000098                __do_copy_data
 .init4         0x000000b2       0x10 c:/program files (x86)/atmel/atmel studio 6.0/extensions/atmel/avrgcc/3.3.2.31/avrtoolchain/bin/../lib/gcc/avr/4.5.1/avr51\libgcc.a(_clear_bss.o)
                0x000000b2                __do_clear_bss
 *(.init4)
 *(.init5)
 *(.init5)
 *(.init6)
 *(.init6)
 *(.init7)
 *(.init7)
 *(.init8)
 .init8         0x000000c2      0x20a ..\..\Kernel-Tank-IO\Release\libKernel-Tank-IO.a(kernel.o)
                0x000000c2                init_reset_condition_kernel_init
                0x000000da                init_ports_m1284P_kernel_init
                0x000000de                init_timer_m1284P_kernel_init
                0x00000272                init_timer_kernel_init
                0x000002a2                init_tank_leds_kernel_init
                0x000002a6                init_tank_buttons_kernel_init
                0x000002aa                init_kernel_kernel_init
                0x000002c8                tankIO_system_initialized_kernel_init
 *(.init8)
 *(.init9)
 .init9         0x000002cc        0x8 c:/program files (x86)/atmel/atmel studio 6.0/extensions/atmel/avrgcc/3.3.2.31/avrtoolchain/bin/../lib/gcc/avr/4.5.1/../../../../avr/lib/avr51/crtm1284p.o
 *(.init9)
 *(.text)
 .text          0x000002d4        0x4 c:/program files (x86)/atmel/atmel studio 6.0/extensions/atmel/avrgcc/3.3.2.31/avrtoolchain/bin/../lib/gcc/avr/4.5.1/../../../../avr/lib/avr51/crtm1284p.o
                0x000002d4                __vector_22
                0x000002d4                __vector_28
                0x000002d4                __vector_1
                0x000002d4                __vector_34
                0x000002d4                __vector_24
                0x000002d4                __vector_12
                0x000002d4                __bad_interrupt
                0x000002d4                __vector_6
                0x000002d4                __vector_31
                0x000002d4                __vector_3
                0x000002d4                __vector_23
                0x000002d4                __vector_30
                0x000002d4                __vector_25
                0x000002d4                __vector_11
                0x000002d4                __vector_13
                0x000002d4                __vector_17
                0x000002d4                __vector_19
                0x000002d4                __vector_7
                0x000002d4                __vector_27
                0x000002d4                __vector_5
                0x000002d4                __vector_33
                0x000002d4                __vector_4
                0x000002d4                __vector_9
                0x000002d4                __vector_2
                0x000002d4                __vector_21
                0x000002d4                __vector_15
                0x000002d4                __vector_29
                0x000002d4                __vector_8
                0x000002d4                __vector_26
                0x000002d4                __vector_14
                0x000002d4                __vector_10
                0x000002d4                __vector_16
                0x000002d4                __vector_18
                0x000002d4                __vector_20
 .text          0x000002d8        0x0 Main.o
 .text          0x000002d8        0x0 main/LedOperations.o
 .text          0x000002d8        0x0 ..\..\Kernel-Tank-IO\Release\libKernel-Tank-IO.a(kernel.o)
 .text          0x000002d8        0x0 ..\..\AntonAvrLib\Release\libAntonAvrLib.a(button.o)
 .text          0x000002d8        0x0 ..\..\AntonAvrLib\Release\libAntonAvrLib.a(external_interrupts.o)
 .text          0x000002d8        0x0 ..\..\AntonAvrLib\Release\libAntonAvrLib.a(led.o)
 .text          0x000002d8        0x0 ..\..\AntonAvrLib\Release\libAntonAvrLib.a(port.o)
 .text          0x000002d8        0x0 ..\..\AntonAvrLib\Release\libAntonAvrLib.a(timer.o)
 .text          0x000002d8        0x0 ..\..\AntonAvrLib\Release\libAntonAvrLib.a(idle.o)
 .text          0x000002d8        0x0 c:/program files (x86)/atmel/atmel studio 6.0/extensions/atmel/avrgcc/3.3.2.31/avrtoolchain/bin/../lib/gcc/avr/4.5.1/avr51\libgcc.a(_divmodhi4.o)
 .text          0x000002d8        0x0 c:/program files (x86)/atmel/atmel studio 6.0/extensions/atmel/avrgcc/3.3.2.31/avrtoolchain/bin/../lib/gcc/avr/4.5.1/avr51\libgcc.a(_exit.o)
 .text          0x000002d8        0x0 c:/program files (x86)/atmel/atmel studio 6.0/extensions/atmel/avrgcc/3.3.2.31/avrtoolchain/bin/../lib/gcc/avr/4.5.1/avr51\libgcc.a(_copy_data.o)
 .text          0x000002d8        0x0 c:/program files (x86)/atmel/atmel studio 6.0/extensions/atmel/avrgcc/3.3.2.31/avrtoolchain/bin/../lib/gcc/avr/4.5.1/avr51\libgcc.a(_clear_bss.o)
 .text          0x000002d8        0x0 c:/program files (x86)/atmel/atmel studio 6.0/extensions/atmel/avrgcc/3.3.2.31/avrtoolchain/bin/../lib/gcc/avr/4.5.1/avr51\libgcc.a(_udivmodhi4.o)
 .text          0x000002d8        0x0 c:/program files (x86)/atmel/atmel studio 6.0/extensions/atmel/avrgcc/3.3.2.31/avrtoolchain/bin/../lib/gcc/avr/4.5.1/../../../../avr/lib/avr51\libc.a(malloc.o)
                0x000002d8                . = ALIGN (0x2)
 *(.text.*)
 .text.run_leds
                0x000002d8       0x42 Main.o
                0x000002d8                run_leds
 .text.leds_special
                0x0000031a       0x1c Main.o
                0x0000031a                leds_special
 .text.test_buttons
                0x00000336       0x1c Main.o
                0x00000336                test_buttons
 .text.all_leds
                0x00000352        0xe Main.o
                0x00000352                all_leds
 .text.main     0x00000360       0x92 Main.o
                0x00000360                main
 .text.test_communication_raw
                0x000003f2       0x3c Main.o
                0x000003f2                test_communication_raw
 .text.test_communication_raw_steer_motors
                0x0000042e       0x92 Main.o
                0x0000042e                test_communication_raw_steer_motors
 .text.led_operation_tick
                0x000004c0       0xb0 main/LedOperations.o
                0x000004c0                led_operation_tick
 .text.led_operation_off
                0x00000570        0xa main/LedOperations.o
                0x00000570                led_operation_off
 .text.led_operation_1
                0x0000057a       0x2e main/LedOperations.o
                0x0000057a                led_operation_1
 .text.init_reset_condition
                0x000005a8       0x1a ..\..\Kernel-Tank-IO\Release\libKernel-Tank-IO.a(kernel.o)
                0x000005a8                init_reset_condition
 .text.getResetStatus
                0x000005c2        0x6 ..\..\Kernel-Tank-IO\Release\libKernel-Tank-IO.a(kernel.o)
                0x000005c2                getResetStatus
 .text.init_ports_m1284P
                0x000005c8      0x212 ..\..\Kernel-Tank-IO\Release\libKernel-Tank-IO.a(kernel.o)
                0x000005c8                init_ports_m1284P
 .text.init_timer_m1284P
                0x000007da      0x19a ..\..\Kernel-Tank-IO\Release\libKernel-Tank-IO.a(kernel.o)
                0x000007da                init_timer_m1284P
 .text.init_timer
                0x00000974       0x3a ..\..\Kernel-Tank-IO\Release\libKernel-Tank-IO.a(kernel.o)
                0x00000974                init_timer
 .text.in_timer_tick
                0x000009ae        0x2 ..\..\Kernel-Tank-IO\Release\libKernel-Tank-IO.a(kernel.o)
                0x000009ae                in_timer_tick
 .text.__vector_32
                0x000009b0       0x76 ..\..\Kernel-Tank-IO\Release\libKernel-Tank-IO.a(kernel.o)
                0x000009b0                __vector_32
 .text.mutex_create
                0x00000a26        0xa ..\..\Kernel-Tank-IO\Release\libKernel-Tank-IO.a(kernel.o)
                0x00000a26                mutex_create
 .text.mutex_lock
                0x00000a30       0x12 ..\..\Kernel-Tank-IO\Release\libKernel-Tank-IO.a(kernel.o)
                0x00000a30                mutex_lock
 .text.mutex_trylock
                0x00000a42       0x16 ..\..\Kernel-Tank-IO\Release\libKernel-Tank-IO.a(kernel.o)
                0x00000a42                mutex_trylock
 .text.mutex_release
                0x00000a58        0x4 ..\..\Kernel-Tank-IO\Release\libKernel-Tank-IO.a(kernel.o)
                0x00000a58                mutex_release
 .text.init_tank_leds
                0x00000a5c      0x15e ..\..\Kernel-Tank-IO\Release\libKernel-Tank-IO.a(kernel.o)
                0x00000a5c                init_tank_leds
 .text.initButton
                0x00000bba       0x30 ..\..\Kernel-Tank-IO\Release\libKernel-Tank-IO.a(kernel.o)
                0x00000bba                initButton
 .text.init_tank_buttons
                0x00000bea      0x15c ..\..\Kernel-Tank-IO\Release\libKernel-Tank-IO.a(kernel.o)
                0x00000bea                init_tank_buttons
 .text.buttonStatusMask
                0x00000d46       0x50 ..\..\Kernel-Tank-IO\Release\libKernel-Tank-IO.a(kernel.o)
                0x00000d46                buttonStatusMask
 .text.pressedButtons
                0x00000d96       0x22 ..\..\Kernel-Tank-IO\Release\libKernel-Tank-IO.a(kernel.o)
                0x00000d96                pressedButtons
 .text.updateButtonStatus
                0x00000db8       0xb0 ..\..\Kernel-Tank-IO\Release\libKernel-Tank-IO.a(kernel.o)
                0x00000db8                updateButtonStatus
 .text.before_timer
                0x00000e68        0x2 ..\..\Kernel-Tank-IO\Release\libKernel-Tank-IO.a(kernel.o)
                0x00000e68                before_timer
 .text.init_kernel
                0x00000e6a       0x20 ..\..\Kernel-Tank-IO\Release\libKernel-Tank-IO.a(kernel.o)
                0x00000e6a                init_kernel
 .text.buttonStatus
                0x00000e8a       0x30 ..\..\AntonAvrLib\Release\libAntonAvrLib.a(button.o)
                0x00000e8a                buttonStatus
 .text.enablePinChangeInterrupt
                0x00000eba       0x4c ..\..\AntonAvrLib\Release\libAntonAvrLib.a(external_interrupts.o)
                0x00000eba                enablePinChangeInterrupt
 .text.disblePinChangeInterrupt
                0x00000f06       0x36 ..\..\AntonAvrLib\Release\libAntonAvrLib.a(external_interrupts.o)
                0x00000f06                disblePinChangeInterrupt
 .text.enableLed
                0x00000f3c       0x10 ..\..\AntonAvrLib\Release\libAntonAvrLib.a(led.o)
                0x00000f3c                enableLed
 .text.disableLed
                0x00000f4c       0x10 ..\..\AntonAvrLib\Release\libAntonAvrLib.a(led.o)
                0x00000f4c                disableLed
 .text.setLed   0x00000f5c        0xc ..\..\AntonAvrLib\Release\libAntonAvrLib.a(led.o)
                0x00000f5c                setLed
 .text.setLeds  0x00000f68       0x98 ..\..\AntonAvrLib\Release\libAntonAvrLib.a(led.o)
                0x00000f68                setLeds
 .text.enableLeds
                0x00001000       0x5a ..\..\AntonAvrLib\Release\libAntonAvrLib.a(led.o)
                0x00001000                enableLeds
 .text.disableLeds
                0x0000105a       0x5a ..\..\AntonAvrLib\Release\libAntonAvrLib.a(led.o)
                0x0000105a                disableLeds
 .text.blinkLeds
                0x000010b4      0x12c ..\..\AntonAvrLib\Release\libAntonAvrLib.a(led.o)
                0x000010b4                blinkLeds
 .text.blinkAllLeds
                0x000011e0      0x11e ..\..\AntonAvrLib\Release\libAntonAvrLib.a(led.o)
                0x000011e0                blinkAllLeds
 .text.blinkLed
                0x000012fe       0x5e ..\..\AntonAvrLib\Release\libAntonAvrLib.a(led.o)
                0x000012fe                blinkLed
 .text.flashLed
                0x0000135c       0x46 ..\..\AntonAvrLib\Release\libAntonAvrLib.a(led.o)
                0x0000135c                flashLed
 .text.flashLeds
                0x000013a2      0x102 ..\..\AntonAvrLib\Release\libAntonAvrLib.a(led.o)
                0x000013a2                flashLeds
 .text.flashAllLeds
                0x000014a4       0xee ..\..\AntonAvrLib\Release\libAntonAvrLib.a(led.o)
                0x000014a4                flashAllLeds
 .text.blinkByte
                0x00001592      0x394 ..\..\AntonAvrLib\Release\libAntonAvrLib.a(led.o)
                0x00001592                blinkByte
 .text.setPortOutput
                0x00001926       0x10 ..\..\AntonAvrLib\Release\libAntonAvrLib.a(port.o)
                0x00001926                setPortOutput
 .text.setPortInput
                0x00001936        0xe ..\..\AntonAvrLib\Release\libAntonAvrLib.a(port.o)
                0x00001936                setPortInput
 .text.setPinOutput
                0x00001944       0x1c ..\..\AntonAvrLib\Release\libAntonAvrLib.a(port.o)
                0x00001944                setPinOutput
 .text.setPinInput
                0x00001960       0x1e ..\..\AntonAvrLib\Release\libAntonAvrLib.a(port.o)
                0x00001960                setPinInput
 .text.writePort
                0x0000197e        0xc ..\..\AntonAvrLib\Release\libAntonAvrLib.a(port.o)
                0x0000197e                writePort
 .text.readPort
                0x0000198a        0xe ..\..\AntonAvrLib\Release\libAntonAvrLib.a(port.o)
                0x0000198a                readPort
 .text.writePin
                0x00001998       0x32 ..\..\AntonAvrLib\Release\libAntonAvrLib.a(port.o)
                0x00001998                writePin
 .text.setPinOne
                0x000019ca       0x1c ..\..\AntonAvrLib\Release\libAntonAvrLib.a(port.o)
                0x000019ca                setPinOne
 .text.setPinZero
                0x000019e6       0x1e ..\..\AntonAvrLib\Release\libAntonAvrLib.a(port.o)
                0x000019e6                setPinZero
 .text.readPin  0x00001a04       0x22 ..\..\AntonAvrLib\Release\libAntonAvrLib.a(port.o)
                0x00001a04                readPin
 .text.setCompareMatchOutputMode
                0x00001a26       0x58 ..\..\AntonAvrLib\Release\libAntonAvrLib.a(timer.o)
                0x00001a26                setCompareMatchOutputMode
 .text.setTimerClockSelect
                0x00001a7e       0xc2 ..\..\AntonAvrLib\Release\libAntonAvrLib.a(timer.o)
                0x00001a7e                setTimerClockSelect
 .text.setWaveformGenerationMode
                0x00001b40      0x146 ..\..\AntonAvrLib\Release\libAntonAvrLib.a(timer.o)
                0x00001b40                setWaveformGenerationMode
 .text.enableTimerInterrupt
                0x00001c86       0x2c ..\..\AntonAvrLib\Release\libAntonAvrLib.a(timer.o)
                0x00001c86                enableTimerInterrupt
 .text.disableTimerInterrupt
                0x00001cb2       0x2c ..\..\AntonAvrLib\Release\libAntonAvrLib.a(timer.o)
                0x00001cb2                disableTimerInterrupt
 .text.enableOutputCompare
                0x00001cde       0x48 ..\..\AntonAvrLib\Release\libAntonAvrLib.a(timer.o)
                0x00001cde                enableOutputCompare
 .text.disableOutputCompare
                0x00001d26       0x36 ..\..\AntonAvrLib\Release\libAntonAvrLib.a(timer.o)
                0x00001d26                disableOutputCompare
 .text.setTimerCompareValue
                0x00001d5c       0x56 ..\..\AntonAvrLib\Release\libAntonAvrLib.a(timer.o)
                0x00001d5c                setTimerCompareValue
 .text.getTimerCompareValue
                0x00001db2       0x60 ..\..\AntonAvrLib\Release\libAntonAvrLib.a(timer.o)
                0x00001db2                getTimerCompareValue
 .text.processor_idle
                0x00001e12       0x12 ..\..\AntonAvrLib\Release\libAntonAvrLib.a(idle.o)
                0x00001e12                processor_idle
 .text.processor_loop_idle
                0x00001e24       0x12 ..\..\AntonAvrLib\Release\libAntonAvrLib.a(idle.o)
                0x00001e24                processor_loop_idle
 .text.libgcc   0x00001e36       0x26 c:/program files (x86)/atmel/atmel studio 6.0/extensions/atmel/avrgcc/3.3.2.31/avrtoolchain/bin/../lib/gcc/avr/4.5.1/avr51\libgcc.a(_divmodhi4.o)
                0x00001e36                _div
                0x00001e36                __divmodhi4
 .text.libgcc   0x00001e5c        0x0 c:/program files (x86)/atmel/atmel studio 6.0/extensions/atmel/avrgcc/3.3.2.31/avrtoolchain/bin/../lib/gcc/avr/4.5.1/avr51\libgcc.a(_exit.o)
 .text.libgcc   0x00001e5c        0x0 c:/program files (x86)/atmel/atmel studio 6.0/extensions/atmel/avrgcc/3.3.2.31/avrtoolchain/bin/../lib/gcc/avr/4.5.1/avr51\libgcc.a(_copy_data.o)
 .text.libgcc   0x00001e5c        0x0 c:/program files (x86)/atmel/atmel studio 6.0/extensions/atmel/avrgcc/3.3.2.31/avrtoolchain/bin/../lib/gcc/avr/4.5.1/avr51\libgcc.a(_clear_bss.o)
 .text.libgcc   0x00001e5c       0x28 c:/program files (x86)/atmel/atmel studio 6.0/extensions/atmel/avrgcc/3.3.2.31/avrtoolchain/bin/../lib/gcc/avr/4.5.1/avr51\libgcc.a(_udivmodhi4.o)
                0x00001e5c                __udivmodhi4
 .text.avr-libc
                0x00001e84      0x266 c:/program files (x86)/atmel/atmel studio 6.0/extensions/atmel/avrgcc/3.3.2.31/avrtoolchain/bin/../lib/gcc/avr/4.5.1/../../../../avr/lib/avr51\libc.a(malloc.o)
                0x00001e84                malloc
                0x00001fb8                free
                0x000020ea                . = ALIGN (0x2)
 *(.fini9)
 .fini9         0x000020ea        0x0 c:/program files (x86)/atmel/atmel studio 6.0/extensions/atmel/avrgcc/3.3.2.31/avrtoolchain/bin/../lib/gcc/avr/4.5.1/avr51\libgcc.a(_exit.o)
                0x000020ea                _exit
                0x000020ea                exit
 *(.fini9)
 *(.fini8)
 *(.fini8)
 *(.fini7)
 *(.fini7)
 *(.fini6)
 *(.fini6)
 *(.fini5)
 *(.fini5)
 *(.fini4)
 *(.fini4)
 *(.fini3)
 *(.fini3)
 *(.fini2)
 *(.fini2)
 *(.fini1)
 .fini1         0x000020ea        0x6 ..\..\Kernel-Tank-IO\Release\libKernel-Tank-IO.a(kernel.o)
                0x000020ea                MainProcessEnd
 *(.fini1)
 *(.fini0)
 .fini0         0x000020f0        0x4 c:/program files (x86)/atmel/atmel studio 6.0/extensions/atmel/avrgcc/3.3.2.31/avrtoolchain/bin/../lib/gcc/avr/4.5.1/avr51\libgcc.a(_exit.o)
 *(.fini0)
                0x000020f4                _etext = .

.data           0x00800100      0x138 load address 0x000020f4
                0x00800100                PROVIDE (__data_start, .)
 *(.data)
 .data          0x00800100        0x0 c:/program files (x86)/atmel/atmel studio 6.0/extensions/atmel/avrgcc/3.3.2.31/avrtoolchain/bin/../lib/gcc/avr/4.5.1/../../../../avr/lib/avr51/crtm1284p.o
 .data          0x00800100        0x0 Main.o
 .data          0x00800100        0x2 main/LedOperations.o
                0x00800100                running
 .data          0x00800102      0x120 ..\..\Kernel-Tank-IO\Release\libKernel-Tank-IO.a(kernel.o)
                0x00800102                Button1
                0x00800104                Button2
                0x00800106                Button3
                0x00800108                Button4
                0x0080010a                ButtonSwitch
                0x0080010c                White1
                0x0080010e                White2
                0x00800110                White3
                0x00800112                White4
                0x00800114                White5
                0x00800116                Red1
                0x00800118                Red2
                0x0080011a                Red3
                0x0080011c                Red4
                0x0080011e                Red5
                0x00800120                Green1
                0x00800122                Green2
                0x00800124                Green3
                0x00800126                Yellow1
                0x00800128                Yellow2
                0x0080012a                RedLeds
                0x0080012c                YellowLeds
                0x0080012e                WhiteLeds
                0x00800130                GreenLeds
                0x00800132                MiddleLeds
                0x00800134                AllLeds
                0x00800136                PortA
                0x00800138                PinA0
                0x0080013a                PinA1
                0x0080013c                PinA2
                0x0080013e                PinA3
                0x00800140                PinA4
                0x00800142                PinA5
                0x00800144                PinA6
                0x00800146                PinA7
                0x00800148                PortB
                0x0080014a                PinB0
                0x0080014c                PinB1
                0x0080014e                PinB2
                0x00800150                PinB3
                0x00800152                PinB4
                0x00800154                PinB5
                0x00800156                PinB6
                0x00800158                PinB7
                0x0080015a                PortC
                0x0080015c                PinC0
                0x0080015e                PinC1
                0x00800160                PinC2
                0x00800162                PinC3
                0x00800164                PinC4
                0x00800166                PinC5
                0x00800168                PinC6
                0x0080016a                PinC7
                0x0080016c                PortD
                0x0080016e                PinD0
                0x00800170                PinD1
                0x00800172                PinD2
                0x00800174                PinD3
                0x00800176                PinD4
                0x00800178                PinD5
                0x0080017a                PinD6
                0x0080017c                PinD7
                0x0080017e                Timer0
                0x00800180                Timer1
                0x00800182                Timer2
                0x00800184                Timer3
                0x00800186                Timer0A
                0x00800188                Timer0B
                0x0080018a                Timer1A
                0x0080018c                Timer1B
                0x0080018e                Timer2A
                0x00800190                Timer2B
                0x00800192                Timer3A
                0x00800194                Timer3B
                0x00800196                redLedsArray
                0x008001a0                yellowLedsArray
                0x008001a4                whiteLedsArray
                0x008001ae                greenLedsArray
                0x008001b4                middleLedsArray
                0x008001be                allLedsArray
 .data          0x00800222        0x0 ..\..\AntonAvrLib\Release\libAntonAvrLib.a(button.o)
 .data          0x00800222        0x8 ..\..\AntonAvrLib\Release\libAntonAvrLib.a(external_interrupts.o)
                0x00800222                maskRegisters
 .data          0x0080022a        0x0 ..\..\AntonAvrLib\Release\libAntonAvrLib.a(led.o)
 .data          0x0080022a        0x0 ..\..\AntonAvrLib\Release\libAntonAvrLib.a(port.o)
 .data          0x0080022a        0x8 ..\..\AntonAvrLib\Release\libAntonAvrLib.a(timer.o)
 .data          0x00800232        0x0 ..\..\AntonAvrLib\Release\libAntonAvrLib.a(idle.o)
 .data          0x00800232        0x0 c:/program files (x86)/atmel/atmel studio 6.0/extensions/atmel/avrgcc/3.3.2.31/avrtoolchain/bin/../lib/gcc/avr/4.5.1/avr51\libgcc.a(_divmodhi4.o)
 .data          0x00800232        0x0 c:/program files (x86)/atmel/atmel studio 6.0/extensions/atmel/avrgcc/3.3.2.31/avrtoolchain/bin/../lib/gcc/avr/4.5.1/avr51\libgcc.a(_exit.o)
 .data          0x00800232        0x0 c:/program files (x86)/atmel/atmel studio 6.0/extensions/atmel/avrgcc/3.3.2.31/avrtoolchain/bin/../lib/gcc/avr/4.5.1/avr51\libgcc.a(_copy_data.o)
 .data          0x00800232        0x0 c:/program files (x86)/atmel/atmel studio 6.0/extensions/atmel/avrgcc/3.3.2.31/avrtoolchain/bin/../lib/gcc/avr/4.5.1/avr51\libgcc.a(_clear_bss.o)
 .data          0x00800232        0x0 c:/program files (x86)/atmel/atmel studio 6.0/extensions/atmel/avrgcc/3.3.2.31/avrtoolchain/bin/../lib/gcc/avr/4.5.1/avr51\libgcc.a(_udivmodhi4.o)
 .data          0x00800232        0x6 c:/program files (x86)/atmel/atmel studio 6.0/extensions/atmel/avrgcc/3.3.2.31/avrtoolchain/bin/../lib/gcc/avr/4.5.1/../../../../avr/lib/avr51\libc.a(malloc.o)
                0x00800232                __malloc_margin
                0x00800234                __malloc_heap_start
                0x00800236                __malloc_heap_end
 *(.data*)
 *(.rodata)
 *(.rodata*)
 *(.gnu.linkonce.d*)
                0x00800238                . = ALIGN (0x2)
                0x00800238                _edata = .
                0x00800238                PROVIDE (__data_end, .)

.bss            0x00800238      0x12b
                0x00800238                PROVIDE (__bss_start, .)
 *(.bss)
 .bss           0x00800238        0x0 c:/program files (x86)/atmel/atmel studio 6.0/extensions/atmel/avrgcc/3.3.2.31/avrtoolchain/bin/../lib/gcc/avr/4.5.1/../../../../avr/lib/avr51/crtm1284p.o
 .bss           0x00800238        0x0 Main.o
 .bss           0x00800238        0x0 main/LedOperations.o
 .bss           0x00800238        0x7 ..\..\Kernel-Tank-IO\Release\libKernel-Tank-IO.a(kernel.o)
                0x00800238                current_reset_status
                0x00800239                milliseconds_running
                0x0080023d                buttonsPressedSinceLastCall
                0x0080023e                wasPressed
 .bss           0x0080023f        0x0 ..\..\AntonAvrLib\Release\libAntonAvrLib.a(button.o)
 .bss           0x0080023f        0x0 ..\..\AntonAvrLib\Release\libAntonAvrLib.a(external_interrupts.o)
 .bss           0x0080023f        0x0 ..\..\AntonAvrLib\Release\libAntonAvrLib.a(led.o)
 .bss           0x0080023f        0x0 ..\..\AntonAvrLib\Release\libAntonAvrLib.a(port.o)
 .bss           0x0080023f        0x0 ..\..\AntonAvrLib\Release\libAntonAvrLib.a(timer.o)
 .bss           0x0080023f        0x0 ..\..\AntonAvrLib\Release\libAntonAvrLib.a(idle.o)
 .bss           0x0080023f        0x0 c:/program files (x86)/atmel/atmel studio 6.0/extensions/atmel/avrgcc/3.3.2.31/avrtoolchain/bin/../lib/gcc/avr/4.5.1/avr51\libgcc.a(_divmodhi4.o)
 .bss           0x0080023f        0x0 c:/program files (x86)/atmel/atmel studio 6.0/extensions/atmel/avrgcc/3.3.2.31/avrtoolchain/bin/../lib/gcc/avr/4.5.1/avr51\libgcc.a(_exit.o)
 .bss           0x0080023f        0x0 c:/program files (x86)/atmel/atmel studio 6.0/extensions/atmel/avrgcc/3.3.2.31/avrtoolchain/bin/../lib/gcc/avr/4.5.1/avr51\libgcc.a(_copy_data.o)
 .bss           0x0080023f        0x0 c:/program files (x86)/atmel/atmel studio 6.0/extensions/atmel/avrgcc/3.3.2.31/avrtoolchain/bin/../lib/gcc/avr/4.5.1/avr51\libgcc.a(_clear_bss.o)
 .bss           0x0080023f        0x0 c:/program files (x86)/atmel/atmel studio 6.0/extensions/atmel/avrgcc/3.3.2.31/avrtoolchain/bin/../lib/gcc/avr/4.5.1/avr51\libgcc.a(_udivmodhi4.o)
 .bss           0x0080023f        0x0 c:/program files (x86)/atmel/atmel studio 6.0/extensions/atmel/avrgcc/3.3.2.31/avrtoolchain/bin/../lib/gcc/avr/4.5.1/../../../../avr/lib/avr51\libc.a(malloc.o)
 *(.bss*)
 *(COMMON)
 COMMON         0x0080023f        0x6 main/LedOperations.o
                0x0080023f                leds_right
                0x00800241                leds_middle
                0x00800243                leds_left
 COMMON         0x00800245      0x11a ..\..\Kernel-Tank-IO\Release\libKernel-Tank-IO.a(kernel.o)
                0x00800245                ButtonSwitch_
                0x00800249                PinA5_
                0x0080024c                PinD7_
                0x0080024f                PinC1_
                0x00800252                PinC4_
                0x00800255                Button3_
                0x00800259                Green1_
                0x0080025b                PinC7_
                0x0080025e                YellowLeds_
                0x00800261                PinA6_
                0x00800264                White4_
                0x00800266                WhiteLeds_
                0x00800269                PinB2_
                0x0080026c                PinD0_
                0x0080026f                PinA1_
                0x00800272                Timer3A_
                0x0080027a                Timer1A_
                0x00800282                Red1_
                0x00800284                Timer1_
                0x0080028b                PinC2_
                0x0080028e                PortD_
                0x00800294                Timer2_
                0x0080029b                Timer3_
                0x008002a2                Timer0B_
                0x008002aa                PinC3_
                0x008002ad                PinA4_
                0x008002b0                PinC5_
                0x008002b3                PortB_
                0x008002b9                PinC0_
                0x008002bc                Green2_
                0x008002be                PinB1_
                0x008002c1                PinA7_
                0x008002c4                Red3_
                0x008002c6                PinB7_
                0x008002c9                PortC_
                0x008002cf                Timer1B_
                0x008002d7                buttonMutex
                0x008002d9                PinD5_
                0x008002dc                White5_
                0x008002de                PinA0_
                0x008002e1                PinD2_
                0x008002e4                Timer2B_
                0x008002ec                PinC6_
                0x008002ef                Timer3B_
                0x008002f7                Red5_
                0x008002f9                White1_
                0x008002fb                PinD4_
                0x008002fe                Yellow2_
                0x00800300                MiddleLeds_
                0x00800303                PinB5_
                0x00800306                PinA3_
                0x00800309                Button4_
                0x0080030d                Button2_
                0x00800311                PinD3_
                0x00800314                AllLeds_
                0x00800317                Timer0_
                0x0080031e                PinB0_
                0x00800321                PinB4_
                0x00800324                Red4_
                0x00800326                PinD6_
                0x00800329                White2_
                0x0080032b                GreenLeds_
                0x0080032e                Yellow1_
                0x00800330                PinA2_
                0x00800333                PortA_
                0x00800339                PinB3_
                0x0080033c                Red2_
                0x0080033e                Green3_
                0x00800340                PinD1_
                0x00800343                Timer2A_
                0x0080034b                RedLeds_
                0x0080034e                Button1_
                0x00800352                PinB6_
                0x00800355                White3_
                0x00800357                Timer0A_
 COMMON         0x0080035f        0x4 c:/program files (x86)/atmel/atmel studio 6.0/extensions/atmel/avrgcc/3.3.2.31/avrtoolchain/bin/../lib/gcc/avr/4.5.1/../../../../avr/lib/avr51\libc.a(malloc.o)
                0x0080035f                __brkval
                0x00800361                __flp
                0x00800363                PROVIDE (__bss_end, .)
                0x000020f4                __data_load_start = LOADADDR (.data)
                0x0000222c                __data_load_end = (__data_load_start + SIZEOF (.data))

.noinit         0x00800363        0x0
                0x00800363                PROVIDE (__noinit_start, .)
 *(.noinit*)
                0x00800363                PROVIDE (__noinit_end, .)
                0x00800363                _end = .
                0x00800363                PROVIDE (__heap_start, .)

.eeprom         0x00810000        0x0
 *(.eeprom*)
                0x00810000                __eeprom_end = .

.fuse
 *(.fuse)
 *(.lfuse)
 *(.hfuse)
 *(.efuse)

.lock
 *(.lock*)

.signature
 *(.signature*)

.stab           0x00000000      0x6cc
 *(.stab)
 .stab          0x00000000      0x6cc c:/program files (x86)/atmel/atmel studio 6.0/extensions/atmel/avrgcc/3.3.2.31/avrtoolchain/bin/../lib/gcc/avr/4.5.1/../../../../avr/lib/avr51/crtm1284p.o

.stabstr        0x00000000       0x97
 *(.stabstr)
 .stabstr       0x00000000       0x97 c:/program files (x86)/atmel/atmel studio 6.0/extensions/atmel/avrgcc/3.3.2.31/avrtoolchain/bin/../lib/gcc/avr/4.5.1/../../../../avr/lib/avr51/crtm1284p.o

.stab.excl
 *(.stab.excl)

.stab.exclstr
 *(.stab.exclstr)

.stab.index
 *(.stab.index)

.stab.indexstr
 *(.stab.indexstr)

.comment
 *(.comment)

.debug
 *(.debug)

.line
 *(.line)

.debug_srcinfo
 *(.debug_srcinfo)

.debug_sfnames
 *(.debug_sfnames)

.debug_aranges  0x00000000       0x28
 *(.debug_aranges)
 .debug_aranges
                0x00000000       0x28 c:/program files (x86)/atmel/atmel studio 6.0/extensions/atmel/avrgcc/3.3.2.31/avrtoolchain/bin/../lib/gcc/avr/4.5.1/../../../../avr/lib/avr51\libc.a(malloc.o)

.debug_pubnames
                0x00000000       0x7f
 *(.debug_pubnames)
 .debug_pubnames
                0x00000000       0x7f c:/program files (x86)/atmel/atmel studio 6.0/extensions/atmel/avrgcc/3.3.2.31/avrtoolchain/bin/../lib/gcc/avr/4.5.1/../../../../avr/lib/avr51\libc.a(malloc.o)

.debug_info     0x00000000      0x296
 *(.debug_info)
 .debug_info    0x00000000      0x296 c:/program files (x86)/atmel/atmel studio 6.0/extensions/atmel/avrgcc/3.3.2.31/avrtoolchain/bin/../lib/gcc/avr/4.5.1/../../../../avr/lib/avr51\libc.a(malloc.o)
 *(.gnu.linkonce.wi.*)

.debug_abbrev   0x00000000       0xf5
 *(.debug_abbrev)
 .debug_abbrev  0x00000000       0xf5 c:/program files (x86)/atmel/atmel studio 6.0/extensions/atmel/avrgcc/3.3.2.31/avrtoolchain/bin/../lib/gcc/avr/4.5.1/../../../../avr/lib/avr51\libc.a(malloc.o)

.debug_line     0x00000000      0x405
 *(.debug_line)
 .debug_line    0x00000000      0x405 c:/program files (x86)/atmel/atmel studio 6.0/extensions/atmel/avrgcc/3.3.2.31/avrtoolchain/bin/../lib/gcc/avr/4.5.1/../../../../avr/lib/avr51\libc.a(malloc.o)

.debug_frame    0x00000000       0x30
 *(.debug_frame)
 .debug_frame   0x00000000       0x30 c:/program files (x86)/atmel/atmel studio 6.0/extensions/atmel/avrgcc/3.3.2.31/avrtoolchain/bin/../lib/gcc/avr/4.5.1/../../../../avr/lib/avr51\libc.a(malloc.o)

.debug_str      0x00000000      0x143
 *(.debug_str)
 .debug_str     0x00000000      0x143 c:/program files (x86)/atmel/atmel studio 6.0/extensions/atmel/avrgcc/3.3.2.31/avrtoolchain/bin/../lib/gcc/avr/4.5.1/../../../../avr/lib/avr51\libc.a(malloc.o)
                                0x17c (size before relaxing)

.debug_loc      0x00000000      0x429
 *(.debug_loc)
 .debug_loc     0x00000000      0x429 c:/program files (x86)/atmel/atmel studio 6.0/extensions/atmel/avrgcc/3.3.2.31/avrtoolchain/bin/../lib/gcc/avr/4.5.1/../../../../avr/lib/avr51\libc.a(malloc.o)

.debug_macinfo
 *(.debug_macinfo)
OUTPUT(Main-Tank-IO.elf elf32-avr)
LOAD linker stubs

.debug_pubtypes
                0x00000000       0x39
 .debug_pubtypes
                0x00000000       0x39 c:/program files (x86)/atmel/atmel studio 6.0/extensions/atmel/avrgcc/3.3.2.31/avrtoolchain/bin/../lib/gcc/avr/4.5.1/../../../../avr/lib/avr51\libc.a(malloc.o)

.debug_ranges   0x00000000       0x18
 .debug_ranges  0x00000000       0x18 c:/program files (x86)/atmel/atmel studio 6.0/extensions/atmel/avrgcc/3.3.2.31/avrtoolchain/bin/../lib/gcc/avr/4.5.1/../../../../avr/lib/avr51\libc.a(malloc.o)
