Archive member included because of file (symbol)

AntonAvrLib/build-Avr\libAntonAvrLib.a(analog.o)
                              Main-Tank-MASTER/build-Avr/Main.o (analogRead)
AntonAvrLib/build-Avr\libAntonAvrLib.a(motor.o)
                              Main-Tank-MASTER/build-Avr/Main.o (setSpeedForward)
AntonAvrLib/build-Avr\libAntonAvrLib.a(port.o)
                              AntonAvrLib/build-Avr\libAntonAvrLib.a(motor.o) (setPinOne)
AntonAvrLib/build-Avr\libAntonAvrLib.a(timer.o)
                              AntonAvrLib/build-Avr\libAntonAvrLib.a(motor.o) (enableOutputCompare)
Kernel-Tank-MASTER/build-Avr\libKernel-Tank-MASTER.a(kernel.o)
                              Main-Tank-MASTER/build-Avr/Main.o (RightMotorBase)
AntonAvrLib/build-Avr\libAntonAvrLib.a(motor_smooth.o)
                              Kernel-Tank-MASTER/build-Avr\libKernel-Tank-MASTER.a(kernel.o) (motor_smooth_tick)
AntonAvrLib/build-Avr\libAntonAvrLib.a(idle.o)
                              Kernel-Tank-MASTER/build-Avr\libKernel-Tank-MASTER.a(kernel.o) (processor_loop_idle)
c:/program files (x86)/atmel/atmel studio 6.0/extensions/atmel/avrgcc/3.4.0.65/avrtoolchain/bin/../lib/gcc/avr/4.6.2/../../../../avr/lib/avr51\libm.a(divsf3.o)
                              AntonAvrLib/build-Avr\libAntonAvrLib.a(motor.o) (__divsf3)
c:/program files (x86)/atmel/atmel studio 6.0/extensions/atmel/avrgcc/3.4.0.65/avrtoolchain/bin/../lib/gcc/avr/4.6.2/../../../../avr/lib/avr51\libm.a(divsf3x.o)
                              c:/program files (x86)/atmel/atmel studio 6.0/extensions/atmel/avrgcc/3.4.0.65/avrtoolchain/bin/../lib/gcc/avr/4.6.2/../../../../avr/lib/avr51\libm.a(divsf3.o) (__divsf3x)
c:/program files (x86)/atmel/atmel studio 6.0/extensions/atmel/avrgcc/3.4.0.65/avrtoolchain/bin/../lib/gcc/avr/4.6.2/../../../../avr/lib/avr51\libm.a(fixunssfsi.o)
                              AntonAvrLib/build-Avr\libAntonAvrLib.a(motor.o) (__fixunssfsi)
c:/program files (x86)/atmel/atmel studio 6.0/extensions/atmel/avrgcc/3.4.0.65/avrtoolchain/bin/../lib/gcc/avr/4.6.2/../../../../avr/lib/avr51\libm.a(floatsisf.o)
                              AntonAvrLib/build-Avr\libAntonAvrLib.a(motor.o) (__floatunsisf)
c:/program files (x86)/atmel/atmel studio 6.0/extensions/atmel/avrgcc/3.4.0.65/avrtoolchain/bin/../lib/gcc/avr/4.6.2/../../../../avr/lib/avr51\libm.a(fp_inf.o)
                              c:/program files (x86)/atmel/atmel studio 6.0/extensions/atmel/avrgcc/3.4.0.65/avrtoolchain/bin/../lib/gcc/avr/4.6.2/../../../../avr/lib/avr51\libm.a(divsf3x.o) (__fp_inf)
c:/program files (x86)/atmel/atmel studio 6.0/extensions/atmel/avrgcc/3.4.0.65/avrtoolchain/bin/../lib/gcc/avr/4.6.2/../../../../avr/lib/avr51\libm.a(fp_nan.o)
                              c:/program files (x86)/atmel/atmel studio 6.0/extensions/atmel/avrgcc/3.4.0.65/avrtoolchain/bin/../lib/gcc/avr/4.6.2/../../../../avr/lib/avr51\libm.a(divsf3x.o) (__fp_nan)
c:/program files (x86)/atmel/atmel studio 6.0/extensions/atmel/avrgcc/3.4.0.65/avrtoolchain/bin/../lib/gcc/avr/4.6.2/../../../../avr/lib/avr51\libm.a(fp_pscA.o)
                              c:/program files (x86)/atmel/atmel studio 6.0/extensions/atmel/avrgcc/3.4.0.65/avrtoolchain/bin/../lib/gcc/avr/4.6.2/../../../../avr/lib/avr51\libm.a(divsf3x.o) (__fp_pscA)
c:/program files (x86)/atmel/atmel studio 6.0/extensions/atmel/avrgcc/3.4.0.65/avrtoolchain/bin/../lib/gcc/avr/4.6.2/../../../../avr/lib/avr51\libm.a(fp_pscB.o)
                              c:/program files (x86)/atmel/atmel studio 6.0/extensions/atmel/avrgcc/3.4.0.65/avrtoolchain/bin/../lib/gcc/avr/4.6.2/../../../../avr/lib/avr51\libm.a(divsf3x.o) (__fp_pscB)
c:/program files (x86)/atmel/atmel studio 6.0/extensions/atmel/avrgcc/3.4.0.65/avrtoolchain/bin/../lib/gcc/avr/4.6.2/../../../../avr/lib/avr51\libm.a(fp_round.o)
                              c:/program files (x86)/atmel/atmel studio 6.0/extensions/atmel/avrgcc/3.4.0.65/avrtoolchain/bin/../lib/gcc/avr/4.6.2/../../../../avr/lib/avr51\libm.a(divsf3.o) (__fp_round)
c:/program files (x86)/atmel/atmel studio 6.0/extensions/atmel/avrgcc/3.4.0.65/avrtoolchain/bin/../lib/gcc/avr/4.6.2/../../../../avr/lib/avr51\libm.a(fp_split3.o)
                              c:/program files (x86)/atmel/atmel studio 6.0/extensions/atmel/avrgcc/3.4.0.65/avrtoolchain/bin/../lib/gcc/avr/4.6.2/../../../../avr/lib/avr51\libm.a(divsf3x.o) (__fp_split3)
c:/program files (x86)/atmel/atmel studio 6.0/extensions/atmel/avrgcc/3.4.0.65/avrtoolchain/bin/../lib/gcc/avr/4.6.2/../../../../avr/lib/avr51\libm.a(fp_zero.o)
                              c:/program files (x86)/atmel/atmel studio 6.0/extensions/atmel/avrgcc/3.4.0.65/avrtoolchain/bin/../lib/gcc/avr/4.6.2/../../../../avr/lib/avr51\libm.a(fixunssfsi.o) (__fp_zero)
c:/program files (x86)/atmel/atmel studio 6.0/extensions/atmel/avrgcc/3.4.0.65/avrtoolchain/bin/../lib/gcc/avr/4.6.2/../../../../avr/lib/avr51\libm.a(mulsf3.o)
                              AntonAvrLib/build-Avr\libAntonAvrLib.a(motor.o) (__mulsf3)
c:/program files (x86)/atmel/atmel studio 6.0/extensions/atmel/avrgcc/3.4.0.65/avrtoolchain/bin/../lib/gcc/avr/4.6.2/../../../../avr/lib/avr51\libm.a(mulsf3x.o)
                              c:/program files (x86)/atmel/atmel studio 6.0/extensions/atmel/avrgcc/3.4.0.65/avrtoolchain/bin/../lib/gcc/avr/4.6.2/../../../../avr/lib/avr51\libm.a(mulsf3.o) (__mulsf3x)
c:/program files (x86)/atmel/atmel studio 6.0/extensions/atmel/avrgcc/3.4.0.65/avrtoolchain/bin/../lib/gcc/avr/4.6.2/avr51\libgcc.a(_exit.o)
                              c:/program files (x86)/atmel/atmel studio 6.0/extensions/atmel/avrgcc/3.4.0.65/avrtoolchain/bin/../lib/gcc/avr/4.6.2/../../../../avr/lib/avr51/crtm1284p.o (exit)
c:/program files (x86)/atmel/atmel studio 6.0/extensions/atmel/avrgcc/3.4.0.65/avrtoolchain/bin/../lib/gcc/avr/4.6.2/avr51\libgcc.a(_copy_data.o)
                              Main-Tank-MASTER/build-Avr/Main.o (__do_copy_data)
c:/program files (x86)/atmel/atmel studio 6.0/extensions/atmel/avrgcc/3.4.0.65/avrtoolchain/bin/../lib/gcc/avr/4.6.2/avr51\libgcc.a(_clear_bss.o)
                              Main-Tank-MASTER/build-Avr/Main.o (__do_clear_bss)
c:/program files (x86)/atmel/atmel studio 6.0/extensions/atmel/avrgcc/3.4.0.65/avrtoolchain/bin/../lib/gcc/avr/4.6.2/../../../../avr/lib/avr51\libc.a(malloc.o)
                              Kernel-Tank-MASTER/build-Avr\libKernel-Tank-MASTER.a(kernel.o) (malloc)

Allocating common symbols
Common symbol       size              file

Analog2_            0x3               Kernel-Tank-MASTER/build-Avr\libKernel-Tank-MASTER.a(kernel.o)
PinA5_              0x3               Kernel-Tank-MASTER/build-Avr\libKernel-Tank-MASTER.a(kernel.o)
PinD7_              0x3               Kernel-Tank-MASTER/build-Avr\libKernel-Tank-MASTER.a(kernel.o)
PinC1_              0x3               Kernel-Tank-MASTER/build-Avr\libKernel-Tank-MASTER.a(kernel.o)
PinC4_              0x3               Kernel-Tank-MASTER/build-Avr\libKernel-Tank-MASTER.a(kernel.o)
RightMotorBase_     0xd               Kernel-Tank-MASTER/build-Avr\libKernel-Tank-MASTER.a(kernel.o)
Analog5_            0x3               Kernel-Tank-MASTER/build-Avr\libKernel-Tank-MASTER.a(kernel.o)
Analog4_            0x3               Kernel-Tank-MASTER/build-Avr\libKernel-Tank-MASTER.a(kernel.o)
PinC7_              0x3               Kernel-Tank-MASTER/build-Avr\libKernel-Tank-MASTER.a(kernel.o)
PinA6_              0x3               Kernel-Tank-MASTER/build-Avr\libKernel-Tank-MASTER.a(kernel.o)
Analog7_            0x3               Kernel-Tank-MASTER/build-Avr\libKernel-Tank-MASTER.a(kernel.o)
PinB2_              0x3               Kernel-Tank-MASTER/build-Avr\libKernel-Tank-MASTER.a(kernel.o)
PinD0_              0x3               Kernel-Tank-MASTER/build-Avr\libKernel-Tank-MASTER.a(kernel.o)
PinA1_              0x3               Kernel-Tank-MASTER/build-Avr\libKernel-Tank-MASTER.a(kernel.o)
Timer3A_            0x8               Kernel-Tank-MASTER/build-Avr\libKernel-Tank-MASTER.a(kernel.o)
Timer1A_            0x8               Kernel-Tank-MASTER/build-Avr\libKernel-Tank-MASTER.a(kernel.o)
Timer1_             0x9               Kernel-Tank-MASTER/build-Avr\libKernel-Tank-MASTER.a(kernel.o)
PinC2_              0x3               Kernel-Tank-MASTER/build-Avr\libKernel-Tank-MASTER.a(kernel.o)
PortD_              0x6               Kernel-Tank-MASTER/build-Avr\libKernel-Tank-MASTER.a(kernel.o)
Timer2_             0x9               Kernel-Tank-MASTER/build-Avr\libKernel-Tank-MASTER.a(kernel.o)
Timer3_             0x9               Kernel-Tank-MASTER/build-Avr\libKernel-Tank-MASTER.a(kernel.o)
Timer0B_            0x8               Kernel-Tank-MASTER/build-Avr\libKernel-Tank-MASTER.a(kernel.o)
__brkval            0x2               c:/program files (x86)/atmel/atmel studio 6.0/extensions/atmel/avrgcc/3.4.0.65/avrtoolchain/bin/../lib/gcc/avr/4.6.2/../../../../avr/lib/avr51\libc.a(malloc.o)
PinC3_              0x3               Kernel-Tank-MASTER/build-Avr\libKernel-Tank-MASTER.a(kernel.o)
PinA4_              0x3               Kernel-Tank-MASTER/build-Avr\libKernel-Tank-MASTER.a(kernel.o)
PinC5_              0x3               Kernel-Tank-MASTER/build-Avr\libKernel-Tank-MASTER.a(kernel.o)
PortB_              0x6               Kernel-Tank-MASTER/build-Avr\libKernel-Tank-MASTER.a(kernel.o)
PinC0_              0x3               Kernel-Tank-MASTER/build-Avr\libKernel-Tank-MASTER.a(kernel.o)
PinB1_              0x3               Kernel-Tank-MASTER/build-Avr\libKernel-Tank-MASTER.a(kernel.o)
PinA7_              0x3               Kernel-Tank-MASTER/build-Avr\libKernel-Tank-MASTER.a(kernel.o)
PinB7_              0x3               Kernel-Tank-MASTER/build-Avr\libKernel-Tank-MASTER.a(kernel.o)
LeftMotor_          0x10              Kernel-Tank-MASTER/build-Avr\libKernel-Tank-MASTER.a(kernel.o)
PortC_              0x6               Kernel-Tank-MASTER/build-Avr\libKernel-Tank-MASTER.a(kernel.o)
Timer1B_            0x8               Kernel-Tank-MASTER/build-Avr\libKernel-Tank-MASTER.a(kernel.o)
LeftMotorBase_      0xd               Kernel-Tank-MASTER/build-Avr\libKernel-Tank-MASTER.a(kernel.o)
PinD5_              0x3               Kernel-Tank-MASTER/build-Avr\libKernel-Tank-MASTER.a(kernel.o)
Analog1_            0x3               Kernel-Tank-MASTER/build-Avr\libKernel-Tank-MASTER.a(kernel.o)
PinA0_              0x3               Kernel-Tank-MASTER/build-Avr\libKernel-Tank-MASTER.a(kernel.o)
PinD2_              0x3               Kernel-Tank-MASTER/build-Avr\libKernel-Tank-MASTER.a(kernel.o)
Timer2B_            0x8               Kernel-Tank-MASTER/build-Avr\libKernel-Tank-MASTER.a(kernel.o)
PinC6_              0x3               Kernel-Tank-MASTER/build-Avr\libKernel-Tank-MASTER.a(kernel.o)
Timer3B_            0x8               Kernel-Tank-MASTER/build-Avr\libKernel-Tank-MASTER.a(kernel.o)
Analog3_            0x3               Kernel-Tank-MASTER/build-Avr\libKernel-Tank-MASTER.a(kernel.o)
Analog6_            0x3               Kernel-Tank-MASTER/build-Avr\libKernel-Tank-MASTER.a(kernel.o)
PinD4_              0x3               Kernel-Tank-MASTER/build-Avr\libKernel-Tank-MASTER.a(kernel.o)
PinB5_              0x3               Kernel-Tank-MASTER/build-Avr\libKernel-Tank-MASTER.a(kernel.o)
PinA3_              0x3               Kernel-Tank-MASTER/build-Avr\libKernel-Tank-MASTER.a(kernel.o)
PinD3_              0x3               Kernel-Tank-MASTER/build-Avr\libKernel-Tank-MASTER.a(kernel.o)
Timer0_             0x9               Kernel-Tank-MASTER/build-Avr\libKernel-Tank-MASTER.a(kernel.o)
PinB0_              0x3               Kernel-Tank-MASTER/build-Avr\libKernel-Tank-MASTER.a(kernel.o)
PinB4_              0x3               Kernel-Tank-MASTER/build-Avr\libKernel-Tank-MASTER.a(kernel.o)
PinD6_              0x3               Kernel-Tank-MASTER/build-Avr\libKernel-Tank-MASTER.a(kernel.o)
analogCallbackFunction
                    0x2               AntonAvrLib/build-Avr\libAntonAvrLib.a(analog.o)
PinA2_              0x3               Kernel-Tank-MASTER/build-Avr\libKernel-Tank-MASTER.a(kernel.o)
PortA_              0x6               Kernel-Tank-MASTER/build-Avr\libKernel-Tank-MASTER.a(kernel.o)
RightMotor_         0x10              Kernel-Tank-MASTER/build-Avr\libKernel-Tank-MASTER.a(kernel.o)
PinB3_              0x3               Kernel-Tank-MASTER/build-Avr\libKernel-Tank-MASTER.a(kernel.o)
__flp               0x2               c:/program files (x86)/atmel/atmel studio 6.0/extensions/atmel/avrgcc/3.4.0.65/avrtoolchain/bin/../lib/gcc/avr/4.6.2/../../../../avr/lib/avr51\libc.a(malloc.o)
Analog0_            0x3               Kernel-Tank-MASTER/build-Avr\libKernel-Tank-MASTER.a(kernel.o)
PinD1_              0x3               Kernel-Tank-MASTER/build-Avr\libKernel-Tank-MASTER.a(kernel.o)
Timer2A_            0x8               Kernel-Tank-MASTER/build-Avr\libKernel-Tank-MASTER.a(kernel.o)
PinB6_              0x3               Kernel-Tank-MASTER/build-Avr\libKernel-Tank-MASTER.a(kernel.o)
Timer0A_            0x8               Kernel-Tank-MASTER/build-Avr\libKernel-Tank-MASTER.a(kernel.o)

Memory Configuration

Name             Origin             Length             Attributes
text             0x00000000         0x00020000         xr
data             0x00800100         0x0000ff00         rw !x
eeprom           0x00810000         0x00010000         rw !x
fuse             0x00820000         0x00000400         rw !x
lock             0x00830000         0x00000400         rw !x
signature        0x00840000         0x00000400         rw !x
*default*        0x00000000         0xffffffff

Linker script and memory map

Address of section .data set to 0x800100
LOAD c:/program files (x86)/atmel/atmel studio 6.0/extensions/atmel/avrgcc/3.4.0.65/avrtoolchain/bin/../lib/gcc/avr/4.6.2/../../../../avr/lib/avr51/crtm1284p.o
START GROUP
LOAD AntonAvrLib/build-Avr\libAntonAvrLib.a
LOAD Kernel-Tank-MASTER/build-Avr\libKernel-Tank-MASTER.a
LOAD Main-Tank-MASTER/build-Avr/Main.o
END GROUP
LOAD c:/program files (x86)/atmel/atmel studio 6.0/extensions/atmel/avrgcc/3.4.0.65/avrtoolchain/bin/../lib/gcc/avr/4.6.2/../../../../avr/lib/avr51\libm.a
LOAD c:/program files (x86)/atmel/atmel studio 6.0/extensions/atmel/avrgcc/3.4.0.65/avrtoolchain/bin/../lib/gcc/avr/4.6.2/avr51\libgcc.a
LOAD c:/program files (x86)/atmel/atmel studio 6.0/extensions/atmel/avrgcc/3.4.0.65/avrtoolchain/bin/../lib/gcc/avr/4.6.2/../../../../avr/lib/avr51\libc.a
LOAD c:/program files (x86)/atmel/atmel studio 6.0/extensions/atmel/avrgcc/3.4.0.65/avrtoolchain/bin/../lib/gcc/avr/4.6.2/avr51\libgcc.a

.hash
 *(.hash)

.dynsym
 *(.dynsym)

.dynstr
 *(.dynstr)

.gnu.version
 *(.gnu.version)

.gnu.version_d
 *(.gnu.version_d)

.gnu.version_r
 *(.gnu.version_r)

.rel.init
 *(.rel.init)

.rela.init
 *(.rela.init)

.rel.text
 *(.rel.text)
 *(.rel.text.*)
 *(.rel.gnu.linkonce.t*)

.rela.text
 *(.rela.text)
 *(.rela.text.*)
 *(.rela.gnu.linkonce.t*)

.rel.fini
 *(.rel.fini)

.rela.fini
 *(.rela.fini)

.rel.rodata
 *(.rel.rodata)
 *(.rel.rodata.*)
 *(.rel.gnu.linkonce.r*)

.rela.rodata
 *(.rela.rodata)
 *(.rela.rodata.*)
 *(.rela.gnu.linkonce.r*)

.rel.data
 *(.rel.data)
 *(.rel.data.*)
 *(.rel.gnu.linkonce.d*)

.rela.data
 *(.rela.data)
 *(.rela.data.*)
 *(.rela.gnu.linkonce.d*)

.rel.ctors
 *(.rel.ctors)

.rela.ctors
 *(.rela.ctors)

.rel.dtors
 *(.rel.dtors)

.rela.dtors
 *(.rela.dtors)

.rel.got
 *(.rel.got)

.rela.got
 *(.rela.got)

.rel.bss
 *(.rel.bss)

.rela.bss
 *(.rela.bss)

.rel.plt
 *(.rel.plt)

.rela.plt
 *(.rela.plt)

.text           0x00000000     0x1b18
 *(.vectors)
 .vectors       0x00000000       0x8c c:/program files (x86)/atmel/atmel studio 6.0/extensions/atmel/avrgcc/3.4.0.65/avrtoolchain/bin/../lib/gcc/avr/4.6.2/../../../../avr/lib/avr51/crtm1284p.o
                0x00000000                __vector_default
                0x00000000                __vectors
 *(.vectors)
 *(.progmem.gcc*)
 *(.progmem*)
                0x0000008c                . = ALIGN (0x2)
                0x0000008c                __trampolines_start = .
 *(.trampolines)
 .trampolines   0x0000008c        0x0 linker stubs
 *(.trampolines*)
                0x0000008c                __trampolines_end = .
 *(.jumptables)
 *(.jumptables*)
 *(.lowtext)
 *(.lowtext*)
                0x0000008c                __ctors_start = .
 *(.ctors)
                0x0000008c                __ctors_end = .
                0x0000008c                __dtors_start = .
 *(.dtors)
                0x0000008c                __dtors_end = .
 SORT(*)(.ctors)
 SORT(*)(.dtors)
 *(.init0)
 .init0         0x0000008c        0x0 c:/program files (x86)/atmel/atmel studio 6.0/extensions/atmel/avrgcc/3.4.0.65/avrtoolchain/bin/../lib/gcc/avr/4.6.2/../../../../avr/lib/avr51/crtm1284p.o
                0x0000008c                __init
 *(.init0)
 *(.init1)
 *(.init1)
 *(.init2)
 .init2         0x0000008c        0xc c:/program files (x86)/atmel/atmel studio 6.0/extensions/atmel/avrgcc/3.4.0.65/avrtoolchain/bin/../lib/gcc/avr/4.6.2/../../../../avr/lib/avr51/crtm1284p.o
 *(.init2)
 *(.init3)
 *(.init3)
 *(.init4)
 .init4         0x00000098       0x1a c:/program files (x86)/atmel/atmel studio 6.0/extensions/atmel/avrgcc/3.4.0.65/avrtoolchain/bin/../lib/gcc/avr/4.6.2/avr51\libgcc.a(_copy_data.o)
                0x00000098                __do_copy_data
 .init4         0x000000b2       0x10 c:/program files (x86)/atmel/atmel studio 6.0/extensions/atmel/avrgcc/3.4.0.65/avrtoolchain/bin/../lib/gcc/avr/4.6.2/avr51\libgcc.a(_clear_bss.o)
                0x000000b2                __do_clear_bss
 *(.init4)
 *(.init5)
 *(.init5)
 *(.init6)
 *(.init6)
 *(.init7)
 *(.init7)
 *(.init8)
 .init8         0x000000c2       0x20 Kernel-Tank-MASTER/build-Avr\libKernel-Tank-MASTER.a(kernel.o)
                0x000000c2                init_reset_condition_kernel_init
                0x000000c6                init_ports_m1284P_kernel_init
                0x000000ca                init_timer_m1284P_kernel_init
                0x000000ce                init_timer_kernel_init
                0x000000d2                init_analog_kernel_init
                0x000000d6                init_analog_m1284P_kernel_init
                0x000000da                init_tank_motors_kernel_init
                0x000000de                init_kernel_kernel_init
 *(.init8)
 *(.init9)
 .init9         0x000000e2        0x8 c:/program files (x86)/atmel/atmel studio 6.0/extensions/atmel/avrgcc/3.4.0.65/avrtoolchain/bin/../lib/gcc/avr/4.6.2/../../../../avr/lib/avr51/crtm1284p.o
 *(.init9)
 *(.text)
 .text          0x000000ea        0x4 c:/program files (x86)/atmel/atmel studio 6.0/extensions/atmel/avrgcc/3.4.0.65/avrtoolchain/bin/../lib/gcc/avr/4.6.2/../../../../avr/lib/avr51/crtm1284p.o
                0x000000ea                __vector_22
                0x000000ea                __vector_28
                0x000000ea                __vector_1
                0x000000ea                __vector_34
                0x000000ea                __vector_12
                0x000000ea                __bad_interrupt
                0x000000ea                __vector_6
                0x000000ea                __vector_31
                0x000000ea                __vector_3
                0x000000ea                __vector_23
                0x000000ea                __vector_30
                0x000000ea                __vector_25
                0x000000ea                __vector_11
                0x000000ea                __vector_13
                0x000000ea                __vector_17
                0x000000ea                __vector_19
                0x000000ea                __vector_7
                0x000000ea                __vector_27
                0x000000ea                __vector_5
                0x000000ea                __vector_4
                0x000000ea                __vector_9
                0x000000ea                __vector_2
                0x000000ea                __vector_21
                0x000000ea                __vector_15
                0x000000ea                __vector_29
                0x000000ea                __vector_8
                0x000000ea                __vector_26
                0x000000ea                __vector_14
                0x000000ea                __vector_10
                0x000000ea                __vector_16
                0x000000ea                __vector_18
                0x000000ea                __vector_20
 .text          0x000000ee       0x3e Main-Tank-MASTER/build-Avr/Main.o
                0x000000ee                ana_callback
                0x00000100                ana_read
 .text          0x0000012c       0xa6 AntonAvrLib/build-Avr\libAntonAvrLib.a(analog.o)
                0x00000154                analogRead
                0x00000186                analogReadLoop
 .text          0x000001d2      0x598 AntonAvrLib/build-Avr\libAntonAvrLib.a(motor.o)
                0x000002d2                stopMotor
                0x000002e0                convertSpeed
                0x00000364                getSpeed
                0x000003aa                convertDirection
                0x000003cc                getDirection
                0x00000412                setSpeed
                0x0000043e                setSpeedForward
                0x00000448                setSpeedBackward
                0x00000452                getDirSpeed
                0x000004cc                motor_toUnsignedSpeed
                0x000004e0                setDirSpeed
                0x0000051a                motor1Dir1Speed_setDirSpeed
                0x00000550                motor1Dir1Speed_getDirSpeed
                0x00000596                motor2Dir_setDirSpeed
                0x000005f8                motor2Dir_getDirSpeed
                0x0000067e                motor2Speed_setDirSpeed
                0x000006f2                motor2Speed_getDirSpeed
 .text          0x0000076a       0xde AntonAvrLib/build-Avr\libAntonAvrLib.a(port.o)
                0x0000076a                setPortOutput
                0x0000077a                setPortInput
                0x00000788                setPinOutput
                0x000007a4                setPinInput
                0x000007c2                writePort
                0x000007ce                readPort
                0x000007dc                setPinOne
                0x000007f8                setPinZero
                0x00000816                writePin
                0x00000828                readPin
 .text          0x00000848      0x3ba AntonAvrLib/build-Avr\libAntonAvrLib.a(timer.o)
                0x00000848                setCompareMatchOutputMode
                0x000008a0                setTimerClockSelect
                0x00000968                setWaveformGenerationMode
                0x00000ad4                enableTimerInterrupt
                0x00000afc                disableTimerInterrupt
                0x00000b24                enableOutputCompare
                0x00000b42                disableOutputCompare
                0x00000b60                setTimerCompareValue
                0x00000bae                getTimerCompareValue
 .text          0x00000c02      0x7ca Kernel-Tank-MASTER/build-Avr\libKernel-Tank-MASTER.a(kernel.o)
                0x00000c2e                init_reset_condition
                0x00000c48                getResetStatus
                0x00000c4e                init_ports_m1284P
                0x00000ed8                init_timer_m1284P
                0x00000fb2                init_timer
                0x00000fec                in_timer_tick
                0x00000fee                __vector_32
                0x00001064                mutex_create
                0x0000106e                mutex_lock
                0x00001080                mutex_trylock
                0x0000108a                mutex_release
                0x00001098                __vector_24
                0x000010f6                init_analog
                0x00001108                init_analog_m1284P
                0x00001198                initMotor_1Dir1Speed
                0x000011ba                initMotor_2Dir
                0x000011f4                initMotor_2Speed
                0x00001216                initSmoothMotor
                0x0000122a                motor_smooth_pair_tick
                0x00001254                init_tank_motors
                0x000012c6                motor_smooth_pair_enable_tick
                0x0000130c                motor_smooth_stop_tick
                0x00001334                motor_smooth_start_tick
                0x00001364                __vector_33
                0x000013b4                before_timer
                0x000013b6                init_kernel
 .text          0x000013cc      0x18a AntonAvrLib/build-Avr\libAntonAvrLib.a(motor_smooth.o)
                0x000013cc                regulateSpeed
                0x0000141a                regulateStopMotor
                0x00001428                regulateSpeedForward
                0x00001432                regulateSpeedBackward
                0x0000143c                regulateDirSpeed
                0x00001476                motor_smooth_needsTick
                0x000014a4                motor_smooth_tick
 .text          0x00001556       0x18 AntonAvrLib/build-Avr\libAntonAvrLib.a(idle.o)
                0x00001556                processor_idle
                0x00001568                processor_loop_idle
 .text          0x0000156e        0x0 c:/program files (x86)/atmel/atmel studio 6.0/extensions/atmel/avrgcc/3.4.0.65/avrtoolchain/bin/../lib/gcc/avr/4.6.2/../../../../avr/lib/avr51\libm.a(divsf3.o)
 .text          0x0000156e        0x0 c:/program files (x86)/atmel/atmel studio 6.0/extensions/atmel/avrgcc/3.4.0.65/avrtoolchain/bin/../lib/gcc/avr/4.6.2/../../../../avr/lib/avr51\libm.a(divsf3x.o)
 .text          0x0000156e        0x0 c:/program files (x86)/atmel/atmel studio 6.0/extensions/atmel/avrgcc/3.4.0.65/avrtoolchain/bin/../lib/gcc/avr/4.6.2/../../../../avr/lib/avr51\libm.a(fixunssfsi.o)
 .text          0x0000156e        0x0 c:/program files (x86)/atmel/atmel studio 6.0/extensions/atmel/avrgcc/3.4.0.65/avrtoolchain/bin/../lib/gcc/avr/4.6.2/../../../../avr/lib/avr51\libm.a(floatsisf.o)
 .text          0x0000156e        0x0 c:/program files (x86)/atmel/atmel studio 6.0/extensions/atmel/avrgcc/3.4.0.65/avrtoolchain/bin/../lib/gcc/avr/4.6.2/../../../../avr/lib/avr51\libm.a(fp_inf.o)
 .text          0x0000156e        0x0 c:/program files (x86)/atmel/atmel studio 6.0/extensions/atmel/avrgcc/3.4.0.65/avrtoolchain/bin/../lib/gcc/avr/4.6.2/../../../../avr/lib/avr51\libm.a(fp_nan.o)
 .text          0x0000156e        0x0 c:/program files (x86)/atmel/atmel studio 6.0/extensions/atmel/avrgcc/3.4.0.65/avrtoolchain/bin/../lib/gcc/avr/4.6.2/../../../../avr/lib/avr51\libm.a(fp_pscA.o)
 .text          0x0000156e        0x0 c:/program files (x86)/atmel/atmel studio 6.0/extensions/atmel/avrgcc/3.4.0.65/avrtoolchain/bin/../lib/gcc/avr/4.6.2/../../../../avr/lib/avr51\libm.a(fp_pscB.o)
 .text          0x0000156e        0x0 c:/program files (x86)/atmel/atmel studio 6.0/extensions/atmel/avrgcc/3.4.0.65/avrtoolchain/bin/../lib/gcc/avr/4.6.2/../../../../avr/lib/avr51\libm.a(fp_round.o)
 .text          0x0000156e        0x0 c:/program files (x86)/atmel/atmel studio 6.0/extensions/atmel/avrgcc/3.4.0.65/avrtoolchain/bin/../lib/gcc/avr/4.6.2/../../../../avr/lib/avr51\libm.a(fp_split3.o)
 .text          0x0000156e        0x0 c:/program files (x86)/atmel/atmel studio 6.0/extensions/atmel/avrgcc/3.4.0.65/avrtoolchain/bin/../lib/gcc/avr/4.6.2/../../../../avr/lib/avr51\libm.a(fp_zero.o)
 .text          0x0000156e        0x0 c:/program files (x86)/atmel/atmel studio 6.0/extensions/atmel/avrgcc/3.4.0.65/avrtoolchain/bin/../lib/gcc/avr/4.6.2/../../../../avr/lib/avr51\libm.a(mulsf3.o)
 .text          0x0000156e        0x0 c:/program files (x86)/atmel/atmel studio 6.0/extensions/atmel/avrgcc/3.4.0.65/avrtoolchain/bin/../lib/gcc/avr/4.6.2/../../../../avr/lib/avr51\libm.a(mulsf3x.o)
 .text          0x0000156e        0x0 c:/program files (x86)/atmel/atmel studio 6.0/extensions/atmel/avrgcc/3.4.0.65/avrtoolchain/bin/../lib/gcc/avr/4.6.2/avr51\libgcc.a(_exit.o)
 .text          0x0000156e        0x0 c:/program files (x86)/atmel/atmel studio 6.0/extensions/atmel/avrgcc/3.4.0.65/avrtoolchain/bin/../lib/gcc/avr/4.6.2/avr51\libgcc.a(_copy_data.o)
 .text          0x0000156e        0x0 c:/program files (x86)/atmel/atmel studio 6.0/extensions/atmel/avrgcc/3.4.0.65/avrtoolchain/bin/../lib/gcc/avr/4.6.2/avr51\libgcc.a(_clear_bss.o)
 .text          0x0000156e        0x0 c:/program files (x86)/atmel/atmel studio 6.0/extensions/atmel/avrgcc/3.4.0.65/avrtoolchain/bin/../lib/gcc/avr/4.6.2/../../../../avr/lib/avr51\libc.a(malloc.o)
                0x0000156e                . = ALIGN (0x2)
 *(.text.*)
 .text.startup  0x0000156e       0x38 Main-Tank-MASTER/build-Avr/Main.o
                0x0000156e                main
 .text.avr-libc.fplib
                0x000015a6        0x4 c:/program files (x86)/atmel/atmel studio 6.0/extensions/atmel/avrgcc/3.4.0.65/avrtoolchain/bin/../lib/gcc/avr/4.6.2/../../../../avr/lib/avr51\libm.a(divsf3.o)
                0x000015a6                __divsf3
 .text.avr-libc.fplib
                0x000015aa       0xcc c:/program files (x86)/atmel/atmel studio 6.0/extensions/atmel/avrgcc/3.4.0.65/avrtoolchain/bin/../lib/gcc/avr/4.6.2/../../../../avr/lib/avr51\libm.a(divsf3x.o)
                0x000015c0                __divsf3x
                0x000015c4                __divsf3_pse
 .text.avr-libc.fplib
                0x00001676       0x58 c:/program files (x86)/atmel/atmel studio 6.0/extensions/atmel/avrgcc/3.4.0.65/avrtoolchain/bin/../lib/gcc/avr/4.6.2/../../../../avr/lib/avr51\libm.a(fixunssfsi.o)
                0x00001676                __fixunssfsi
 .text.avr-libc.fplib
                0x000016ce       0x7a c:/program files (x86)/atmel/atmel studio 6.0/extensions/atmel/avrgcc/3.4.0.65/avrtoolchain/bin/../lib/gcc/avr/4.6.2/../../../../avr/lib/avr51\libm.a(floatsisf.o)
                0x000016ce                __floatunsisf
                0x000016d2                __floatsisf
 .text.avr-libc.fplib
                0x00001748        0xc c:/program files (x86)/atmel/atmel studio 6.0/extensions/atmel/avrgcc/3.4.0.65/avrtoolchain/bin/../lib/gcc/avr/4.6.2/../../../../avr/lib/avr51\libm.a(fp_inf.o)
                0x00001748                __fp_inf
 .text.avr-libc.fplib
                0x00001754        0x6 c:/program files (x86)/atmel/atmel studio 6.0/extensions/atmel/avrgcc/3.4.0.65/avrtoolchain/bin/../lib/gcc/avr/4.6.2/../../../../avr/lib/avr51\libm.a(fp_nan.o)
                0x00001754                __fp_nan
 .text.avr-libc.fplib
                0x0000175a        0xe c:/program files (x86)/atmel/atmel studio 6.0/extensions/atmel/avrgcc/3.4.0.65/avrtoolchain/bin/../lib/gcc/avr/4.6.2/../../../../avr/lib/avr51\libm.a(fp_pscA.o)
                0x0000175a                __fp_pscA
 .text.avr-libc.fplib
                0x00001768        0xe c:/program files (x86)/atmel/atmel studio 6.0/extensions/atmel/avrgcc/3.4.0.65/avrtoolchain/bin/../lib/gcc/avr/4.6.2/../../../../avr/lib/avr51\libm.a(fp_pscB.o)
                0x00001768                __fp_pscB
 .text.avr-libc.fplib
                0x00001776       0x22 c:/program files (x86)/atmel/atmel studio 6.0/extensions/atmel/avrgcc/3.4.0.65/avrtoolchain/bin/../lib/gcc/avr/4.6.2/../../../../avr/lib/avr51\libm.a(fp_round.o)
                0x00001776                __fp_round
 .text.avr-libc.fplib
                0x00001798       0x44 c:/program files (x86)/atmel/atmel studio 6.0/extensions/atmel/avrgcc/3.4.0.65/avrtoolchain/bin/../lib/gcc/avr/4.6.2/../../../../avr/lib/avr51\libm.a(fp_split3.o)
                0x00001798                __fp_split3
                0x000017a8                __fp_splitA
 .text.avr-libc.fplib
                0x000017dc        0xe c:/program files (x86)/atmel/atmel studio 6.0/extensions/atmel/avrgcc/3.4.0.65/avrtoolchain/bin/../lib/gcc/avr/4.6.2/../../../../avr/lib/avr51\libm.a(fp_zero.o)
                0x000017dc                __fp_zero
                0x000017de                __fp_szero
 .text.avr-libc.fplib
                0x000017ea        0x4 c:/program files (x86)/atmel/atmel studio 6.0/extensions/atmel/avrgcc/3.4.0.65/avrtoolchain/bin/../lib/gcc/avr/4.6.2/../../../../avr/lib/avr51\libm.a(mulsf3.o)
                0x000017ea                __mulsf3
 .text.avr-libc.fplib
                0x000017ee       0xc2 c:/program files (x86)/atmel/atmel studio 6.0/extensions/atmel/avrgcc/3.4.0.65/avrtoolchain/bin/../lib/gcc/avr/4.6.2/../../../../avr/lib/avr51\libm.a(mulsf3x.o)
                0x00001802                __mulsf3x
                0x00001806                __mulsf3_pse
 .text.libgcc   0x000018b0        0x0 c:/program files (x86)/atmel/atmel studio 6.0/extensions/atmel/avrgcc/3.4.0.65/avrtoolchain/bin/../lib/gcc/avr/4.6.2/avr51\libgcc.a(_exit.o)
 .text.libgcc   0x000018b0        0x0 c:/program files (x86)/atmel/atmel studio 6.0/extensions/atmel/avrgcc/3.4.0.65/avrtoolchain/bin/../lib/gcc/avr/4.6.2/avr51\libgcc.a(_copy_data.o)
 .text.libgcc   0x000018b0        0x0 c:/program files (x86)/atmel/atmel studio 6.0/extensions/atmel/avrgcc/3.4.0.65/avrtoolchain/bin/../lib/gcc/avr/4.6.2/avr51\libgcc.a(_clear_bss.o)
 .text.avr-libc
                0x000018b0      0x25e c:/program files (x86)/atmel/atmel studio 6.0/extensions/atmel/avrgcc/3.4.0.65/avrtoolchain/bin/../lib/gcc/avr/4.6.2/../../../../avr/lib/avr51\libc.a(malloc.o)
                0x000018b0                malloc
                0x000019dc                free
                0x00001b0e                . = ALIGN (0x2)
 *(.fini9)
 .fini9         0x00001b0e        0x0 c:/program files (x86)/atmel/atmel studio 6.0/extensions/atmel/avrgcc/3.4.0.65/avrtoolchain/bin/../lib/gcc/avr/4.6.2/avr51\libgcc.a(_exit.o)
                0x00001b0e                _exit
                0x00001b0e                exit
 *(.fini9)
 *(.fini8)
 *(.fini8)
 *(.fini7)
 *(.fini7)
 *(.fini6)
 *(.fini6)
 *(.fini5)
 *(.fini5)
 *(.fini4)
 *(.fini4)
 *(.fini3)
 *(.fini3)
 *(.fini2)
 *(.fini2)
 *(.fini1)
 .fini1         0x00001b0e        0x6 Kernel-Tank-MASTER/build-Avr\libKernel-Tank-MASTER.a(kernel.o)
                0x00001b0e                MainProcessEnd
 *(.fini1)
 *(.fini0)
 .fini0         0x00001b14        0x4 c:/program files (x86)/atmel/atmel studio 6.0/extensions/atmel/avrgcc/3.4.0.65/avrtoolchain/bin/../lib/gcc/avr/4.6.2/avr51\libgcc.a(_exit.o)
 *(.fini0)
                0x00001b18                _etext = .

.data           0x00800100      0x1b2 load address 0x00001b18
                0x00800100                PROVIDE (__data_start, .)
 *(.data)
 .data          0x00800100        0x0 c:/program files (x86)/atmel/atmel studio 6.0/extensions/atmel/avrgcc/3.4.0.65/avrtoolchain/bin/../lib/gcc/avr/4.6.2/../../../../avr/lib/avr51/crtm1284p.o
 .data          0x00800100        0x0 Main-Tank-MASTER/build-Avr/Main.o
 .data          0x00800100        0x0 AntonAvrLib/build-Avr\libAntonAvrLib.a(analog.o)
 .data          0x00800100        0x0 AntonAvrLib/build-Avr\libAntonAvrLib.a(motor.o)
 .data          0x00800100        0x0 AntonAvrLib/build-Avr\libAntonAvrLib.a(port.o)
 .data          0x00800100        0x8 AntonAvrLib/build-Avr\libAntonAvrLib.a(timer.o)
 .data          0x00800108      0x1a3 Kernel-Tank-MASTER/build-Avr\libKernel-Tank-MASTER.a(kernel.o)
                0x00800233                RightMotor
                0x00800235                LeftMotor
                0x00800237                RightMotorBase
                0x00800239                LeftMotorBase
                0x0080023b                Timer3B
                0x0080023d                Timer3A
                0x0080023f                Timer2B
                0x00800241                Timer2A
                0x00800243                Timer1B
                0x00800245                Timer1A
                0x00800247                Timer0B
                0x00800249                Timer0A
                0x0080024b                Timer3
                0x0080024d                Timer2
                0x0080024f                Timer1
                0x00800251                Timer0
                0x00800253                PinD7
                0x00800255                PinD6
                0x00800257                PinD5
                0x00800259                PinD4
                0x0080025b                PinD3
                0x0080025d                PinD2
                0x0080025f                PinD1
                0x00800261                PinD0
                0x00800263                PortD
                0x00800265                PinC7
                0x00800267                PinC6
                0x00800269                PinC5
                0x0080026b                PinC4
                0x0080026d                PinC3
                0x0080026f                PinC2
                0x00800271                PinC1
                0x00800273                PinC0
                0x00800275                PortC
                0x00800277                PinB7
                0x00800279                PinB6
                0x0080027b                PinB5
                0x0080027d                PinB4
                0x0080027f                PinB3
                0x00800281                PinB2
                0x00800283                PinB1
                0x00800285                PinB0
                0x00800287                PortB
                0x00800289                PinA7
                0x0080028b                PinA6
                0x0080028d                PinA5
                0x0080028f                PinA4
                0x00800291                PinA3
                0x00800293                PinA2
                0x00800295                PinA1
                0x00800297                PinA0
                0x00800299                PortA
                0x0080029b                Analog7
                0x0080029d                Analog6
                0x0080029f                Analog5
                0x008002a1                Analog4
                0x008002a3                Analog3
                0x008002a5                Analog2
                0x008002a7                Analog1
                0x008002a9                Analog0
 .data          0x008002ab        0x0 AntonAvrLib/build-Avr\libAntonAvrLib.a(motor_smooth.o)
 .data          0x008002ab        0x0 AntonAvrLib/build-Avr\libAntonAvrLib.a(idle.o)
 .data          0x008002ab        0x0 c:/program files (x86)/atmel/atmel studio 6.0/extensions/atmel/avrgcc/3.4.0.65/avrtoolchain/bin/../lib/gcc/avr/4.6.2/../../../../avr/lib/avr51\libm.a(divsf3.o)
 .data          0x008002ab        0x0 c:/program files (x86)/atmel/atmel studio 6.0/extensions/atmel/avrgcc/3.4.0.65/avrtoolchain/bin/../lib/gcc/avr/4.6.2/../../../../avr/lib/avr51\libm.a(divsf3x.o)
 .data          0x008002ab        0x0 c:/program files (x86)/atmel/atmel studio 6.0/extensions/atmel/avrgcc/3.4.0.65/avrtoolchain/bin/../lib/gcc/avr/4.6.2/../../../../avr/lib/avr51\libm.a(fixunssfsi.o)
 .data          0x008002ab        0x0 c:/program files (x86)/atmel/atmel studio 6.0/extensions/atmel/avrgcc/3.4.0.65/avrtoolchain/bin/../lib/gcc/avr/4.6.2/../../../../avr/lib/avr51\libm.a(floatsisf.o)
 .data          0x008002ab        0x0 c:/program files (x86)/atmel/atmel studio 6.0/extensions/atmel/avrgcc/3.4.0.65/avrtoolchain/bin/../lib/gcc/avr/4.6.2/../../../../avr/lib/avr51\libm.a(fp_inf.o)
 .data          0x008002ab        0x0 c:/program files (x86)/atmel/atmel studio 6.0/extensions/atmel/avrgcc/3.4.0.65/avrtoolchain/bin/../lib/gcc/avr/4.6.2/../../../../avr/lib/avr51\libm.a(fp_nan.o)
 .data          0x008002ab        0x0 c:/program files (x86)/atmel/atmel studio 6.0/extensions/atmel/avrgcc/3.4.0.65/avrtoolchain/bin/../lib/gcc/avr/4.6.2/../../../../avr/lib/avr51\libm.a(fp_pscA.o)
 .data          0x008002ab        0x0 c:/program files (x86)/atmel/atmel studio 6.0/extensions/atmel/avrgcc/3.4.0.65/avrtoolchain/bin/../lib/gcc/avr/4.6.2/../../../../avr/lib/avr51\libm.a(fp_pscB.o)
 .data          0x008002ab        0x0 c:/program files (x86)/atmel/atmel studio 6.0/extensions/atmel/avrgcc/3.4.0.65/avrtoolchain/bin/../lib/gcc/avr/4.6.2/../../../../avr/lib/avr51\libm.a(fp_round.o)
 .data          0x008002ab        0x0 c:/program files (x86)/atmel/atmel studio 6.0/extensions/atmel/avrgcc/3.4.0.65/avrtoolchain/bin/../lib/gcc/avr/4.6.2/../../../../avr/lib/avr51\libm.a(fp_split3.o)
 .data          0x008002ab        0x0 c:/program files (x86)/atmel/atmel studio 6.0/extensions/atmel/avrgcc/3.4.0.65/avrtoolchain/bin/../lib/gcc/avr/4.6.2/../../../../avr/lib/avr51\libm.a(fp_zero.o)
 .data          0x008002ab        0x0 c:/program files (x86)/atmel/atmel studio 6.0/extensions/atmel/avrgcc/3.4.0.65/avrtoolchain/bin/../lib/gcc/avr/4.6.2/../../../../avr/lib/avr51\libm.a(mulsf3.o)
 .data          0x008002ab        0x0 c:/program files (x86)/atmel/atmel studio 6.0/extensions/atmel/avrgcc/3.4.0.65/avrtoolchain/bin/../lib/gcc/avr/4.6.2/../../../../avr/lib/avr51\libm.a(mulsf3x.o)
 .data          0x008002ab        0x0 c:/program files (x86)/atmel/atmel studio 6.0/extensions/atmel/avrgcc/3.4.0.65/avrtoolchain/bin/../lib/gcc/avr/4.6.2/avr51\libgcc.a(_exit.o)
 .data          0x008002ab        0x0 c:/program files (x86)/atmel/atmel studio 6.0/extensions/atmel/avrgcc/3.4.0.65/avrtoolchain/bin/../lib/gcc/avr/4.6.2/avr51\libgcc.a(_copy_data.o)
 .data          0x008002ab        0x0 c:/program files (x86)/atmel/atmel studio 6.0/extensions/atmel/avrgcc/3.4.0.65/avrtoolchain/bin/../lib/gcc/avr/4.6.2/avr51\libgcc.a(_clear_bss.o)
 .data          0x008002ab        0x6 c:/program files (x86)/atmel/atmel studio 6.0/extensions/atmel/avrgcc/3.4.0.65/avrtoolchain/bin/../lib/gcc/avr/4.6.2/../../../../avr/lib/avr51\libc.a(malloc.o)
                0x008002ab                __malloc_heap_end
                0x008002ad                __malloc_heap_start
                0x008002af                __malloc_margin
 *(.data*)
 *(.rodata)
 *(.rodata*)
 *(.gnu.linkonce.d*)
                0x008002b2                . = ALIGN (0x2)
 *fill*         0x008002b1        0x1 00
                0x008002b2                _edata = .
                0x008002b2                PROVIDE (__data_end, .)

.bss            0x008002b2      0x140
                0x008002b2                PROVIDE (__bss_start, .)
 *(.bss)
 .bss           0x008002b2        0x0 c:/program files (x86)/atmel/atmel studio 6.0/extensions/atmel/avrgcc/3.4.0.65/avrtoolchain/bin/../lib/gcc/avr/4.6.2/../../../../avr/lib/avr51/crtm1284p.o
 .bss           0x008002b2        0x3 Main-Tank-MASTER/build-Avr/Main.o
                0x008002b2                ana_res_ready
                0x008002b4                ana_result
 .bss           0x008002b5        0x0 AntonAvrLib/build-Avr\libAntonAvrLib.a(analog.o)
 .bss           0x008002b5        0x0 AntonAvrLib/build-Avr\libAntonAvrLib.a(motor.o)
 .bss           0x008002b5        0x0 AntonAvrLib/build-Avr\libAntonAvrLib.a(port.o)
 .bss           0x008002b5        0x0 AntonAvrLib/build-Avr\libAntonAvrLib.a(timer.o)
 .bss           0x008002b5        0x9 Kernel-Tank-MASTER/build-Avr\libKernel-Tank-MASTER.a(kernel.o)
                0x008002b5                motor_B_running
                0x008002b7                motor_A_running
                0x008002b9                milliseconds_running
                0x008002bd                current_reset_status
 .bss           0x008002be        0x0 AntonAvrLib/build-Avr\libAntonAvrLib.a(motor_smooth.o)
 .bss           0x008002be        0x0 AntonAvrLib/build-Avr\libAntonAvrLib.a(idle.o)
 .bss           0x008002be        0x0 c:/program files (x86)/atmel/atmel studio 6.0/extensions/atmel/avrgcc/3.4.0.65/avrtoolchain/bin/../lib/gcc/avr/4.6.2/../../../../avr/lib/avr51\libm.a(divsf3.o)
 .bss           0x008002be        0x0 c:/program files (x86)/atmel/atmel studio 6.0/extensions/atmel/avrgcc/3.4.0.65/avrtoolchain/bin/../lib/gcc/avr/4.6.2/../../../../avr/lib/avr51\libm.a(divsf3x.o)
 .bss           0x008002be        0x0 c:/program files (x86)/atmel/atmel studio 6.0/extensions/atmel/avrgcc/3.4.0.65/avrtoolchain/bin/../lib/gcc/avr/4.6.2/../../../../avr/lib/avr51\libm.a(fixunssfsi.o)
 .bss           0x008002be        0x0 c:/program files (x86)/atmel/atmel studio 6.0/extensions/atmel/avrgcc/3.4.0.65/avrtoolchain/bin/../lib/gcc/avr/4.6.2/../../../../avr/lib/avr51\libm.a(floatsisf.o)
 .bss           0x008002be        0x0 c:/program files (x86)/atmel/atmel studio 6.0/extensions/atmel/avrgcc/3.4.0.65/avrtoolchain/bin/../lib/gcc/avr/4.6.2/../../../../avr/lib/avr51\libm.a(fp_inf.o)
 .bss           0x008002be        0x0 c:/program files (x86)/atmel/atmel studio 6.0/extensions/atmel/avrgcc/3.4.0.65/avrtoolchain/bin/../lib/gcc/avr/4.6.2/../../../../avr/lib/avr51\libm.a(fp_nan.o)
 .bss           0x008002be        0x0 c:/program files (x86)/atmel/atmel studio 6.0/extensions/atmel/avrgcc/3.4.0.65/avrtoolchain/bin/../lib/gcc/avr/4.6.2/../../../../avr/lib/avr51\libm.a(fp_pscA.o)
 .bss           0x008002be        0x0 c:/program files (x86)/atmel/atmel studio 6.0/extensions/atmel/avrgcc/3.4.0.65/avrtoolchain/bin/../lib/gcc/avr/4.6.2/../../../../avr/lib/avr51\libm.a(fp_pscB.o)
 .bss           0x008002be        0x0 c:/program files (x86)/atmel/atmel studio 6.0/extensions/atmel/avrgcc/3.4.0.65/avrtoolchain/bin/../lib/gcc/avr/4.6.2/../../../../avr/lib/avr51\libm.a(fp_round.o)
 .bss           0x008002be        0x0 c:/program files (x86)/atmel/atmel studio 6.0/extensions/atmel/avrgcc/3.4.0.65/avrtoolchain/bin/../lib/gcc/avr/4.6.2/../../../../avr/lib/avr51\libm.a(fp_split3.o)
 .bss           0x008002be        0x0 c:/program files (x86)/atmel/atmel studio 6.0/extensions/atmel/avrgcc/3.4.0.65/avrtoolchain/bin/../lib/gcc/avr/4.6.2/../../../../avr/lib/avr51\libm.a(fp_zero.o)
 .bss           0x008002be        0x0 c:/program files (x86)/atmel/atmel studio 6.0/extensions/atmel/avrgcc/3.4.0.65/avrtoolchain/bin/../lib/gcc/avr/4.6.2/../../../../avr/lib/avr51\libm.a(mulsf3.o)
 .bss           0x008002be        0x0 c:/program files (x86)/atmel/atmel studio 6.0/extensions/atmel/avrgcc/3.4.0.65/avrtoolchain/bin/../lib/gcc/avr/4.6.2/../../../../avr/lib/avr51\libm.a(mulsf3x.o)
 .bss           0x008002be        0x0 c:/program files (x86)/atmel/atmel studio 6.0/extensions/atmel/avrgcc/3.4.0.65/avrtoolchain/bin/../lib/gcc/avr/4.6.2/avr51\libgcc.a(_exit.o)
 .bss           0x008002be        0x0 c:/program files (x86)/atmel/atmel studio 6.0/extensions/atmel/avrgcc/3.4.0.65/avrtoolchain/bin/../lib/gcc/avr/4.6.2/avr51\libgcc.a(_copy_data.o)
 .bss           0x008002be        0x0 c:/program files (x86)/atmel/atmel studio 6.0/extensions/atmel/avrgcc/3.4.0.65/avrtoolchain/bin/../lib/gcc/avr/4.6.2/avr51\libgcc.a(_clear_bss.o)
 .bss           0x008002be        0x0 c:/program files (x86)/atmel/atmel studio 6.0/extensions/atmel/avrgcc/3.4.0.65/avrtoolchain/bin/../lib/gcc/avr/4.6.2/../../../../avr/lib/avr51\libc.a(malloc.o)
 *(.bss*)
 *(COMMON)
 COMMON         0x008002be        0x2 AntonAvrLib/build-Avr\libAntonAvrLib.a(analog.o)
                0x008002be                analogCallbackFunction
 COMMON         0x008002c0      0x12e Kernel-Tank-MASTER/build-Avr\libKernel-Tank-MASTER.a(kernel.o)
                0x008002c0                Analog2_
                0x008002c3                PinA5_
                0x008002c6                PinD7_
                0x008002c9                PinC1_
                0x008002cc                PinC4_
                0x008002cf                RightMotorBase_
                0x008002dc                Analog5_
                0x008002df                Analog4_
                0x008002e2                PinC7_
                0x008002e5                PinA6_
                0x008002e8                Analog7_
                0x008002eb                PinB2_
                0x008002ee                PinD0_
                0x008002f1                PinA1_
                0x008002f4                Timer3A_
                0x008002fc                Timer1A_
                0x00800304                Timer1_
                0x0080030d                PinC2_
                0x00800310                PortD_
                0x00800316                Timer2_
                0x0080031f                Timer3_
                0x00800328                Timer0B_
                0x00800330                PinC3_
                0x00800333                PinA4_
                0x00800336                PinC5_
                0x00800339                PortB_
                0x0080033f                PinC0_
                0x00800342                PinB1_
                0x00800345                PinA7_
                0x00800348                PinB7_
                0x0080034b                LeftMotor_
                0x0080035b                PortC_
                0x00800361                Timer1B_
                0x00800369                LeftMotorBase_
                0x00800376                PinD5_
                0x00800379                Analog1_
                0x0080037c                PinA0_
                0x0080037f                PinD2_
                0x00800382                Timer2B_
                0x0080038a                PinC6_
                0x0080038d                Timer3B_
                0x00800395                Analog3_
                0x00800398                Analog6_
                0x0080039b                PinD4_
                0x0080039e                PinB5_
                0x008003a1                PinA3_
                0x008003a4                PinD3_
                0x008003a7                Timer0_
                0x008003b0                PinB0_
                0x008003b3                PinB4_
                0x008003b6                PinD6_
                0x008003b9                PinA2_
                0x008003bc                PortA_
                0x008003c2                RightMotor_
                0x008003d2                PinB3_
                0x008003d5                Analog0_
                0x008003d8                PinD1_
                0x008003db                Timer2A_
                0x008003e3                PinB6_
                0x008003e6                Timer0A_
 COMMON         0x008003ee        0x4 c:/program files (x86)/atmel/atmel studio 6.0/extensions/atmel/avrgcc/3.4.0.65/avrtoolchain/bin/../lib/gcc/avr/4.6.2/../../../../avr/lib/avr51\libc.a(malloc.o)
                0x008003ee                __brkval
                0x008003f0                __flp
                0x008003f2                PROVIDE (__bss_end, .)
                0x00001b18                __data_load_start = LOADADDR (.data)
                0x00001cca                __data_load_end = (__data_load_start + SIZEOF (.data))

.noinit         0x008003f2        0x0
                0x008003f2                PROVIDE (__noinit_start, .)
 *(.noinit*)
                0x008003f2                PROVIDE (__noinit_end, .)
                0x008003f2                _end = .
                0x008003f2                PROVIDE (__heap_start, .)

.eeprom         0x00810000        0x0
 *(.eeprom*)
                0x00810000                __eeprom_end = .

.fuse
 *(.fuse)
 *(.lfuse)
 *(.hfuse)
 *(.efuse)

.lock
 *(.lock*)

.signature
 *(.signature*)

.stab           0x00000000     0x1bcc
 *(.stab)
 .stab          0x00000000      0x6cc c:/program files (x86)/atmel/atmel studio 6.0/extensions/atmel/avrgcc/3.4.0.65/avrtoolchain/bin/../lib/gcc/avr/4.6.2/../../../../avr/lib/avr51/crtm1284p.o
 .stab          0x000006cc       0x48 c:/program files (x86)/atmel/atmel studio 6.0/extensions/atmel/avrgcc/3.4.0.65/avrtoolchain/bin/../lib/gcc/avr/4.6.2/../../../../avr/lib/avr51\libm.a(divsf3.o)
                                 0x54 (size before relaxing)
 .stab          0x00000714      0x510 c:/program files (x86)/atmel/atmel studio 6.0/extensions/atmel/avrgcc/3.4.0.65/avrtoolchain/bin/../lib/gcc/avr/4.6.2/../../../../avr/lib/avr51\libm.a(divsf3x.o)
                                0x51c (size before relaxing)
 .stab          0x00000c24      0x240 c:/program files (x86)/atmel/atmel studio 6.0/extensions/atmel/avrgcc/3.4.0.65/avrtoolchain/bin/../lib/gcc/avr/4.6.2/../../../../avr/lib/avr51\libm.a(fixunssfsi.o)
                                0x24c (size before relaxing)
 .stab          0x00000e64      0x318 c:/program files (x86)/atmel/atmel studio 6.0/extensions/atmel/avrgcc/3.4.0.65/avrtoolchain/bin/../lib/gcc/avr/4.6.2/../../../../avr/lib/avr51\libm.a(floatsisf.o)
                                0x324 (size before relaxing)
 .stab          0x0000117c       0x78 c:/program files (x86)/atmel/atmel studio 6.0/extensions/atmel/avrgcc/3.4.0.65/avrtoolchain/bin/../lib/gcc/avr/4.6.2/../../../../avr/lib/avr51\libm.a(fp_inf.o)
                                 0x84 (size before relaxing)
 .stab          0x000011f4       0x54 c:/program files (x86)/atmel/atmel studio 6.0/extensions/atmel/avrgcc/3.4.0.65/avrtoolchain/bin/../lib/gcc/avr/4.6.2/../../../../avr/lib/avr51\libm.a(fp_nan.o)
                                 0x60 (size before relaxing)
 .stab          0x00001248       0x84 c:/program files (x86)/atmel/atmel studio 6.0/extensions/atmel/avrgcc/3.4.0.65/avrtoolchain/bin/../lib/gcc/avr/4.6.2/../../../../avr/lib/avr51\libm.a(fp_pscA.o)
                                 0x90 (size before relaxing)
 .stab          0x000012cc       0x84 c:/program files (x86)/atmel/atmel studio 6.0/extensions/atmel/avrgcc/3.4.0.65/avrtoolchain/bin/../lib/gcc/avr/4.6.2/../../../../avr/lib/avr51\libm.a(fp_pscB.o)
                                 0x90 (size before relaxing)
 .stab          0x00001350       0xfc c:/program files (x86)/atmel/atmel studio 6.0/extensions/atmel/avrgcc/3.4.0.65/avrtoolchain/bin/../lib/gcc/avr/4.6.2/../../../../avr/lib/avr51\libm.a(fp_round.o)
                                0x108 (size before relaxing)
 .stab          0x0000144c      0x1d4 c:/program files (x86)/atmel/atmel studio 6.0/extensions/atmel/avrgcc/3.4.0.65/avrtoolchain/bin/../lib/gcc/avr/4.6.2/../../../../avr/lib/avr51\libm.a(fp_split3.o)
                                0x1e0 (size before relaxing)
 .stab          0x00001620       0x90 c:/program files (x86)/atmel/atmel studio 6.0/extensions/atmel/avrgcc/3.4.0.65/avrtoolchain/bin/../lib/gcc/avr/4.6.2/../../../../avr/lib/avr51\libm.a(fp_zero.o)
                                 0x9c (size before relaxing)
 .stab          0x000016b0       0x48 c:/program files (x86)/atmel/atmel studio 6.0/extensions/atmel/avrgcc/3.4.0.65/avrtoolchain/bin/../lib/gcc/avr/4.6.2/../../../../avr/lib/avr51\libm.a(mulsf3.o)
                                 0x54 (size before relaxing)
 .stab          0x000016f8      0x4d4 c:/program files (x86)/atmel/atmel studio 6.0/extensions/atmel/avrgcc/3.4.0.65/avrtoolchain/bin/../lib/gcc/avr/4.6.2/../../../../avr/lib/avr51\libm.a(mulsf3x.o)
                                0x4e0 (size before relaxing)

.stabstr        0x00000000      0x583
 *(.stabstr)
 .stabstr       0x00000000      0x583 c:/program files (x86)/atmel/atmel studio 6.0/extensions/atmel/avrgcc/3.4.0.65/avrtoolchain/bin/../lib/gcc/avr/4.6.2/../../../../avr/lib/avr51/crtm1284p.o

.stab.excl
 *(.stab.excl)

.stab.exclstr
 *(.stab.exclstr)

.stab.index
 *(.stab.index)

.stab.indexstr
 *(.stab.indexstr)

.comment
 *(.comment)

.debug
 *(.debug)

.line
 *(.line)

.debug_srcinfo
 *(.debug_srcinfo)

.debug_sfnames
 *(.debug_sfnames)

.debug_aranges  0x00000000       0x88
 *(.debug_aranges)
 .debug_aranges
                0x00000000       0x20 c:/program files (x86)/atmel/atmel studio 6.0/extensions/atmel/avrgcc/3.4.0.65/avrtoolchain/bin/../lib/gcc/avr/4.6.2/avr51\libgcc.a(_exit.o)
 .debug_aranges
                0x00000020       0x20 c:/program files (x86)/atmel/atmel studio 6.0/extensions/atmel/avrgcc/3.4.0.65/avrtoolchain/bin/../lib/gcc/avr/4.6.2/avr51\libgcc.a(_copy_data.o)
 .debug_aranges
                0x00000040       0x20 c:/program files (x86)/atmel/atmel studio 6.0/extensions/atmel/avrgcc/3.4.0.65/avrtoolchain/bin/../lib/gcc/avr/4.6.2/avr51\libgcc.a(_clear_bss.o)
 .debug_aranges
                0x00000060       0x28 c:/program files (x86)/atmel/atmel studio 6.0/extensions/atmel/avrgcc/3.4.0.65/avrtoolchain/bin/../lib/gcc/avr/4.6.2/../../../../avr/lib/avr51\libc.a(malloc.o)

.debug_pubnames
 *(.debug_pubnames)

.debug_info     0x00000000      0x530
 *(.debug_info)
 .debug_info    0x00000000       0xde c:/program files (x86)/atmel/atmel studio 6.0/extensions/atmel/avrgcc/3.4.0.65/avrtoolchain/bin/../lib/gcc/avr/4.6.2/avr51\libgcc.a(_exit.o)
 .debug_info    0x000000de       0xde c:/program files (x86)/atmel/atmel studio 6.0/extensions/atmel/avrgcc/3.4.0.65/avrtoolchain/bin/../lib/gcc/avr/4.6.2/avr51\libgcc.a(_copy_data.o)
 .debug_info    0x000001bc       0xde c:/program files (x86)/atmel/atmel studio 6.0/extensions/atmel/avrgcc/3.4.0.65/avrtoolchain/bin/../lib/gcc/avr/4.6.2/avr51\libgcc.a(_clear_bss.o)
 .debug_info    0x0000029a      0x296 c:/program files (x86)/atmel/atmel studio 6.0/extensions/atmel/avrgcc/3.4.0.65/avrtoolchain/bin/../lib/gcc/avr/4.6.2/../../../../avr/lib/avr51\libc.a(malloc.o)
 *(.gnu.linkonce.wi.*)

.debug_abbrev   0x00000000      0x131
 *(.debug_abbrev)
 .debug_abbrev  0x00000000       0x14 c:/program files (x86)/atmel/atmel studio 6.0/extensions/atmel/avrgcc/3.4.0.65/avrtoolchain/bin/../lib/gcc/avr/4.6.2/avr51\libgcc.a(_exit.o)
 .debug_abbrev  0x00000014       0x14 c:/program files (x86)/atmel/atmel studio 6.0/extensions/atmel/avrgcc/3.4.0.65/avrtoolchain/bin/../lib/gcc/avr/4.6.2/avr51\libgcc.a(_copy_data.o)
 .debug_abbrev  0x00000028       0x14 c:/program files (x86)/atmel/atmel studio 6.0/extensions/atmel/avrgcc/3.4.0.65/avrtoolchain/bin/../lib/gcc/avr/4.6.2/avr51\libgcc.a(_clear_bss.o)
 .debug_abbrev  0x0000003c       0xf5 c:/program files (x86)/atmel/atmel studio 6.0/extensions/atmel/avrgcc/3.4.0.65/avrtoolchain/bin/../lib/gcc/avr/4.6.2/../../../../avr/lib/avr51\libc.a(malloc.o)

.debug_line     0x00000000      0x37c
 *(.debug_line)
 .debug_line    0x00000000       0x88 c:/program files (x86)/atmel/atmel studio 6.0/extensions/atmel/avrgcc/3.4.0.65/avrtoolchain/bin/../lib/gcc/avr/4.6.2/avr51\libgcc.a(_exit.o)
 .debug_line    0x00000088       0x93 c:/program files (x86)/atmel/atmel studio 6.0/extensions/atmel/avrgcc/3.4.0.65/avrtoolchain/bin/../lib/gcc/avr/4.6.2/avr51\libgcc.a(_copy_data.o)
 .debug_line    0x0000011b       0x8e c:/program files (x86)/atmel/atmel studio 6.0/extensions/atmel/avrgcc/3.4.0.65/avrtoolchain/bin/../lib/gcc/avr/4.6.2/avr51\libgcc.a(_clear_bss.o)
 .debug_line    0x000001a9      0x1d3 c:/program files (x86)/atmel/atmel studio 6.0/extensions/atmel/avrgcc/3.4.0.65/avrtoolchain/bin/../lib/gcc/avr/4.6.2/../../../../avr/lib/avr51\libc.a(malloc.o)

.debug_frame    0x00000000       0x54
 *(.debug_frame)
 .debug_frame   0x00000000       0x54 c:/program files (x86)/atmel/atmel studio 6.0/extensions/atmel/avrgcc/3.4.0.65/avrtoolchain/bin/../lib/gcc/avr/4.6.2/../../../../avr/lib/avr51\libc.a(malloc.o)

.debug_str      0x00000000      0x131
 *(.debug_str)
 .debug_str     0x00000000      0x131 c:/program files (x86)/atmel/atmel studio 6.0/extensions/atmel/avrgcc/3.4.0.65/avrtoolchain/bin/../lib/gcc/avr/4.6.2/../../../../avr/lib/avr51\libc.a(malloc.o)
                                0x16a (size before relaxing)

.debug_loc      0x00000000      0x421
 *(.debug_loc)
 .debug_loc     0x00000000      0x421 c:/program files (x86)/atmel/atmel studio 6.0/extensions/atmel/avrgcc/3.4.0.65/avrtoolchain/bin/../lib/gcc/avr/4.6.2/../../../../avr/lib/avr51\libc.a(malloc.o)

.debug_macinfo
 *(.debug_macinfo)
OUTPUT(Main-Tank-MASTER/build-Avr/Main-Tank-MASTER.elf elf32-avr)
LOAD linker stubs

.debug_ranges   0x00000000       0x18
 .debug_ranges  0x00000000       0x18 c:/program files (x86)/atmel/atmel studio 6.0/extensions/atmel/avrgcc/3.4.0.65/avrtoolchain/bin/../lib/gcc/avr/4.6.2/../../../../avr/lib/avr51\libc.a(malloc.o)
